
 Start  Stop   Length Name               Class

 00000H 06404H 06405H _TEXT              CODE
 06405H 06481H 0007DH MAIN_TEXT          CODE
 06482H 064CAH 00049H PTVMAIN_TEXT       CODE
 064CBH 074F0H 01026H RTXCOBJ_TEXT       CODE
 074F1H 07B50H 00660H RS232_TEXT         CODE
 07B51H 07BD3H 00083H INSTRU_TEXT        CODE
 07BD4H 07BE2H 0000FH INTERP_TEXT        CODE
 07BE3H 080A5H 004C3H UTIL_TEXT          CODE
 080A6H 080A6H 00000H CTASK_TEXT         CODE
 080A6H 080A6H 00000H CCLOCK_TEXT        CODE
 080A6H 080A6H 00000H CMBOX_TEXT         CODE
 080A6H 080A6H 00000H CPART_TEXT         CODE
 080A6H 080A6H 00000H CQUEUE_TEXT        CODE
 080A6H 080A6H 00000H CRES_TEXT          CODE
 080A6H 080A6H 00000H CSEMA_TEXT         CODE
 080A6H 0BDE2H 03D3DH RTXC_TEXT          CODE
 0BDE3H 0BDFAH 00018H STRLEN_TEXT        CODE
 0BDFBH 0BE7CH 00082H CLKDRV_TEXT        CODE
 0BE7DH 0CAC4H 00C48H _TEXTC             CODE
 0CAD0H 0CAD0H 00000H _FARDATA           FAR_DATA
 0CAD0H 14ACFH 08000H RTXCOBJ5_DATA      FAR_DATA
 14AD0H 14AE3H 00014H CQUEUE5_DATA       FAR_DATA
 14AF0H 14AF1H 00002H RTXC5_DATA         FAR_DATA
 14B00H 14B00H 00000H _FARBSS            FAR_BSS
 14B00H 14B00H 00000H _OVERLAY_          OVRINFO
 14B00H 14B00H 00000H _1STUB_            STUBSEG
 14B00H 159C1H 00EC2H _DATA              DATA
 159C2H 159C3H 00002H _CVTSEG            DATA
 159C4H 159C9H 00006H _SCNSEG            DATA
 159CAH 159CAH 00000H _CONST             CONST
 159CAH 159DBH 00012H _INIT_             INITDATA
 159DCH 159DCH 00000H _INITEND_          INITDATA
 159DCH 159E1H 00006H _EXIT_             EXITDATA
 159E2H 159E2H 00000H _EXITEND_          EXITDATA
 159E2H 1ACBBH 052DAH _BSS               BSS
 1ACBCH 1ACBCH 00000H _BSSEND            BSSEND
 1ACC0H 1ADF0H 00131H _STACK             STACK


Detailed map of segments

 0000:0000 0271 C=CODE   S=_TEXT          G=(none)  M=C0.ASM     ACBP=28
 0000:0271 001B C=CODE   S=_TEXT          G=(none)  M=_ABORT     ACBP=28
 0000:028C 0014 C=CODE   S=_TEXT          G=(none)  M=ABORT      ACBP=28
 0000:02A0 0031 C=CODE   S=_TEXT          G=(none)  M=ATEXIT     ACBP=28
 0000:02D1 0016 C=CODE   S=_TEXT          G=(none)  M=DEL        ACBP=28
 0000:02E7 0016 C=CODE   S=_TEXT          G=(none)  M=DELARRAY   ACBP=28
 0000:02FD 002A C=CODE   S=_TEXT          G=(none)  M=ERRORMSG   ACBP=28
 0000:0327 00AA C=CODE   S=_TEXT          G=(none)  M=EXIT       ACBP=28
 0000:03D1 0000 C=CODE   S=_TEXT          G=(none)  M=FILES      ACBP=28
 0000:03D1 0000 C=CODE   S=_TEXT          G=(none)  M=FILES2     ACBP=28
 0000:03D1 0000 C=CODE   S=_TEXT          G=(none)  M=FPSTKLEN   ACBP=28
 0000:03D1 0017 C=CODE   S=_TEXT          G=(none)  M=F_LXMUL    ACBP=28
 0000:03E8 00AE C=CODE   S=_TEXT          G=(none)  M=H_LDIV     ACBP=28
 0000:0496 0021 C=CODE   S=_TEXT          G=(none)  M=H_LLSH     ACBP=28
 0000:04B7 0060 C=CODE   S=_TEXT          G=(none)  M=H_PADD     ACBP=28
 0000:0517 0052 C=CODE   S=_TEXT          G=(none)  M=IOERROR    ACBP=28
 0000:0569 0015 C=CODE   S=_TEXT          G=(none)  M=ISATTY     ACBP=28
 0000:057E 00A6 C=CODE   S=_TEXT          G=(none)  M=LONGTOA    ACBP=28
 0000:0624 002D C=CODE   S=_TEXT          G=(none)  M=LSEEK      ACBP=28
 0000:0651 02F2 C=CODE   S=_TEXT          G=(none)  M=NEW        ACBP=28
 0000:0943 0017 C=CODE   S=_TEXT          G=(none)  M=N_LXMUL    ACBP=28
 0000:095A 0021 C=CODE   S=_TEXT          G=(none)  M=N_PCMP     ACBP=28
 0000:097B 00A4 C=CODE   S=_TEXT          G=(none)  M=SETUPIO    ACBP=28
 0000:0A1F 0000 C=CODE   S=_TEXT          G=(none)  M=SIGDATA    ACBP=28
 0000:0A1F 0000 C=CODE   S=_TEXT          G=(none)  M=STKLEN     ACBP=28
 0000:0A1F 0000 C=CODE   S=_TEXT          G=(none)  M=CTYPE      ACBP=28
 0000:0A1F 0030 C=CODE   S=_TEXT          G=(none)  M=TOUPPER    ACBP=28
 0000:0A4F 04DB C=CODE   S=_TEXT          G=(none)  M=VPRINTER   ACBP=28
 0000:0F2A 008F C=CODE   S=_TEXT          G=(none)  M=XXAS       ACBP=28
 0000:0FB9 0289 C=CODE   S=_TEXT          G=(none)  M=XXV        ACBP=28
 0000:1242 005C C=CODE   S=_TEXT          G=(none)  M=CPUTYPE    ACBP=28
 0000:129E 0432 C=CODE   S=_TEXT          G=(none)  M=FARHEAP    ACBP=28
 0000:16D0 0160 C=CODE   S=_TEXT          G=(none)  M=FBRK       ACBP=28
 0000:1830 043C C=CODE   S=_TEXT          G=(none)  M=SIGNAL     ACBP=28
 0000:1C6C 00D1 C=CODE   S=_TEXT          G=(none)  M=FFLUSH     ACBP=28
 0000:1D3D 004C C=CODE   S=_TEXT          G=(none)  M=FLUSHALL   ACBP=28
 0000:1D89 0055 C=CODE   S=_TEXT          G=(none)  M=FPUTS      ACBP=28
 0000:1DDE 01EC C=CODE   S=_TEXT          G=(none)  M=FSEEK      ACBP=28
 0000:1FCA 0028 C=CODE   S=_TEXT          G=(none)  M=MEMCMP     ACBP=28
 0000:1FF2 0024 C=CODE   S=_TEXT          G=(none)  M=MEMCPY     ACBP=28
 0000:2016 0048 C=CODE   S=_TEXT          G=(none)  M=MEMSET     ACBP=28
 0000:205E 0077 C=CODE   S=_TEXT          G=(none)  M=MOVMEM     ACBP=28
 0000:20D5 0091 C=CODE   S=_TEXT          G=(none)  M=PERROR     ACBP=28
 0000:2166 03CE C=CODE   S=_TEXT          G=(none)  M=PUTC       ACBP=28
 0000:2534 0121 C=CODE   S=_TEXT          G=(none)  M=SETVBUF    ACBP=28
 0000:2655 0090 C=CODE   S=_TEXT          G=(none)  M=SPRINTF    ACBP=28
 0000:26E5 0030 C=CODE   S=_TEXT          G=(none)  M=STRCMP     ACBP=28
 0000:2715 0029 C=CODE   S=_TEXT          G=(none)  M=STRCPY     ACBP=28
 0000:273E 0166 C=CODE   S=_TEXT          G=(none)  M=WRITE      ACBP=28
 0000:28A4 005B C=CODE   S=_TEXT          G=(none)  M=WRITEA     ACBP=28
 0000:28FF 003F C=CODE   S=_TEXT          G=(none)  M=XFFLUSH    ACBP=28
 0000:293E 0201 C=CODE   S=_TEXT          G=(none)  M=XALLOC     ACBP=28
 0000:2B3F 03BB C=CODE   S=_TEXT          G=(none)  M=XMSG       ACBP=28
 0000:2EFA 314E C=CODE   S=_TEXT          G=(none)  M=XX         ACBP=28
 0000:6048 001F C=CODE   S=_TEXT          G=(none)  M=CVTFAK     ACBP=28
 0000:6067 0004 C=CODE   S=_TEXT          G=(none)  M=REALCVT    ACBP=28
 0000:606B 0020 C=CODE   S=_TEXT          G=(none)  M=SETBLOCK   ACBP=28
 0000:608B 0060 C=CODE   S=_TEXT          G=(none)  M=CTOR2      ACBP=28
 0000:60EB 00CF C=CODE   S=_TEXT          G=(none)  M=CTOR3      ACBP=28
 0000:61BA 024B C=CODE   S=_TEXT          G=(none)  M=STRINGS    ACBP=28
 0640:0005 007D C=CODE   S=MAIN_TEXT      G=(none)  M=..\..\CODE\INIT\PC\MAIN.C ACBP=28
 0648:0002 0049 C=CODE   S=PTVMAIN_TEXT   G=(none)  M=..\..\CODE\PTVMAIN\0_1\PTVMAIN.C ACBP=28
 064C:000B 1026 C=CODE   S=RTXCOBJ_TEXT   G=(none)  M=..\..\CODE\RTXCOBJ\0_1\RTXCOBJ.C ACBP=28
 074F:0001 0660 C=CODE   S=RS232_TEXT     G=(none)  M=..\..\CODE\CHNDRV\PC\RS232\0_1\RS232.C ACBP=28
 07B5:0001 0083 C=CODE   S=INSTRU_TEXT    G=(none)  M=..\..\CODE\INSTRU\0_1\INSTRU.C ACBP=28
 07BD:0004 000F C=CODE   S=INTERP_TEXT    G=(none)  M=..\..\CODE\INTERP\0_1\INTERP.C ACBP=28
 07BE:0003 04C3 C=CODE   S=UTIL_TEXT      G=(none)  M=..\..\CODE\INTERP\0_1\UTIL.C ACBP=28
 080A:0006 0000 C=CODE   S=CTASK_TEXT     G=(none)  M=..\..\RTXCDEF\PC\CTASK.C ACBP=28
 080A:0006 0000 C=CODE   S=CCLOCK_TEXT    G=(none)  M=..\..\RTXCDEF\PC\CCLOCK.C ACBP=28
 080A:0006 0000 C=CODE   S=CMBOX_TEXT     G=(none)  M=..\..\RTXCDEF\PC\CMBOX.C ACBP=28
 080A:0006 0000 C=CODE   S=CPART_TEXT     G=(none)  M=..\..\RTXCDEF\PC\CPART.C ACBP=28
 080A:0006 0000 C=CODE   S=CQUEUE_TEXT    G=(none)  M=..\..\RTXCDEF\PC\CQUEUE.C ACBP=28
 080A:0006 0000 C=CODE   S=CRES_TEXT      G=(none)  M=..\..\RTXCDEF\PC\CRES.C ACBP=28
 080A:0006 0000 C=CODE   S=CSEMA_TEXT     G=(none)  M=..\..\RTXCDEF\PC\CSEMA.C ACBP=28
 080A:0006 0AE8 C=CODE   S=RTXC_TEXT      G=(none)  M=RTXCAPI    ACBP=28
 080A:0AEE 004A C=CODE   S=RTXC_TEXT      G=(none)  M=RTXCINIT   ACBP=28
 080A:0B38 0036 C=CODE   S=RTXC_TEXT      G=(none)  M=RTXCASM    ACBP=28
 080A:0B6E 0050 C=CODE   S=RTXC_TEXT      G=(none)  M=SETVECT    ACBP=28
 080A:0BBE 30F0 C=CODE   S=RTXC_TEXT      G=(none)  M=RTXC       ACBP=28
 080A:3CAE 0095 C=CODE   S=RTXC_TEXT      G=(none)  M=ISRS       ACBP=28
 0BDE:0003 0018 C=CODE   S=STRLEN_TEXT    G=(none)  M=STRLEN     ACBP=28
 0BDF:000B 0082 C=CODE   S=CLKDRV_TEXT    G=(none)  M=CLKDRV     ACBP=28
 0BE7:000D 00E9 C=CODE   S=_TEXTC         G=(none)  M=CTOR2      ACBP=28
 0BE7:00F6 021C C=CODE   S=_TEXTC         G=(none)  M=CTOR3      ACBP=28
 0BE7:0312 0943 C=CODE   S=_TEXTC         G=(none)  M=STRINGS    ACBP=28
 0CAD:0000 0000 C=FAR_DATA S=_FARDATA       G=(none)  M=C0.ASM     ACBP=68
 0CAD:0000 8000 C=FAR_DATA S=RTXCOBJ5_DATA  G=(none)  M=..\..\CODE\RTXCOBJ\0_1\RTXCOBJ.C ACBP=68
 14AD:0000 0014 C=FAR_DATA S=CQUEUE5_DATA   G=(none)  M=..\..\RTXCDEF\PC\CQUEUE.C ACBP=68
 14AF:0000 0002 C=FAR_DATA S=RTXC5_DATA     G=(none)  M=RTXC       ACBP=68
 14B0:0000 0000 C=FAR_BSS S=_FARBSS        G=(none)  M=C0.ASM     ACBP=68
 14B0:0000 0000 C=OVRINFO S=_OVERLAY_      G=(none)  M=C0.ASM     ACBP=68
 14B0:0000 0000 C=STUBSEG S=_1STUB_        G=(none)  M=C0.ASM     ACBP=68
 14B0:0000 0090 C=DATA   S=_DATA          G=DGROUP  M=C0.ASM     ACBP=68
 14B0:0090 0004 C=DATA   S=_DATA          G=DGROUP  M=..\..\CODE\INIT\PC\MAIN.C ACBP=48
 14B0:0094 0000 C=DATA   S=_DATA          G=DGROUP  M=..\..\CODE\PTVMAIN\0_1\PTVMAIN.C ACBP=48
 14B0:0094 000C C=DATA   S=_DATA          G=DGROUP  M=..\..\CODE\RTXCOBJ\0_1\RTXCOBJ.C ACBP=48
 14B0:00A0 0000 C=DATA   S=_DATA          G=DGROUP  M=..\..\CODE\CHNDRV\PC\RS232\0_1\RS232.C ACBP=48
 14B0:00A0 0013 C=DATA   S=_DATA          G=DGROUP  M=..\..\CODE\INSTRU\0_1\INSTRU.C ACBP=48
 14B0:00B4 0000 C=DATA   S=_DATA          G=DGROUP  M=..\..\CODE\INTERP\0_1\INTERP.C ACBP=48
 14B0:00B4 0002 C=DATA   S=_DATA          G=DGROUP  M=..\..\CODE\INTERP\0_1\UTIL.C ACBP=48
 14B0:00B6 001B C=DATA   S=_DATA          G=DGROUP  M=..\..\RTXCDEF\PC\CTASK.C ACBP=48
 14B0:00D2 0006 C=DATA   S=_DATA          G=DGROUP  M=..\..\RTXCDEF\PC\CCLOCK.C ACBP=48
 14B0:00D8 0014 C=DATA   S=_DATA          G=DGROUP  M=..\..\RTXCDEF\PC\CMBOX.C ACBP=48
 14B0:00EC 0015 C=DATA   S=_DATA          G=DGROUP  M=..\..\RTXCDEF\PC\CPART.C ACBP=48
 14B0:0102 0024 C=DATA   S=_DATA          G=DGROUP  M=..\..\RTXCDEF\PC\CQUEUE.C ACBP=48
 14B0:0126 00EC C=DATA   S=_DATA          G=DGROUP  M=..\..\RTXCDEF\PC\CRES.C ACBP=48
 14B0:0212 01D8 C=DATA   S=_DATA          G=DGROUP  M=..\..\RTXCDEF\PC\CSEMA.C ACBP=48
 14B0:03EA 0037 C=DATA   S=_DATA          G=DGROUP  M=RTXCAPI    ACBP=48
 14B0:0422 0000 C=DATA   S=_DATA          G=DGROUP  M=RTXCINIT   ACBP=48
 14B0:0422 0200 C=DATA   S=_DATA          G=DGROUP  M=RTXCASM    ACBP=48
 14B0:0622 0000 C=DATA   S=_DATA          G=DGROUP  M=SETVECT    ACBP=48
 14B0:0622 0001 C=DATA   S=_DATA          G=DGROUP  M=RTXC       ACBP=48
 14B0:0624 0000 C=DATA   S=_DATA          G=DGROUP  M=STRLEN     ACBP=48
 14B0:0624 0000 C=DATA   S=_DATA          G=DGROUP  M=ISRS       ACBP=48
 14B0:0624 0000 C=DATA   S=_DATA          G=DGROUP  M=CLKDRV     ACBP=48
 14B0:0624 001F C=DATA   S=_DATA          G=DGROUP  M=_ABORT     ACBP=48
 14B0:0644 0000 C=DATA   S=_DATA          G=DGROUP  M=ABORT      ACBP=48
 14B0:0644 0002 C=DATA   S=_DATA          G=DGROUP  M=ATEXIT     ACBP=48
 14B0:0646 0000 C=DATA   S=_DATA          G=DGROUP  M=DEL        ACBP=48
 14B0:0646 0000 C=DATA   S=_DATA          G=DGROUP  M=DELARRAY   ACBP=48
 14B0:0646 0000 C=DATA   S=_DATA          G=DGROUP  M=ERRORMSG   ACBP=48
 14B0:0646 000C C=DATA   S=_DATA          G=DGROUP  M=EXIT       ACBP=48
 14B0:0652 0190 C=DATA   S=_DATA          G=DGROUP  M=FILES      ACBP=48
 14B0:07E2 002A C=DATA   S=_DATA          G=DGROUP  M=FILES2     ACBP=48
 14B0:080C 0002 C=DATA   S=_DATA          G=DGROUP  M=FPSTKLEN   ACBP=48
 14B0:080E 0000 C=DATA   S=_DATA          G=DGROUP  M=F_LXMUL    ACBP=48
 14B0:080E 0000 C=DATA   S=_DATA          G=DGROUP  M=H_LDIV     ACBP=48
 14B0:080E 0000 C=DATA   S=_DATA          G=DGROUP  M=H_LLSH     ACBP=48
 14B0:080E 0000 C=DATA   S=_DATA          G=DGROUP  M=H_PADD     ACBP=48
 14B0:080E 005B C=DATA   S=_DATA          G=DGROUP  M=IOERROR    ACBP=48
 14B0:086A 0000 C=DATA   S=_DATA          G=DGROUP  M=ISATTY     ACBP=48
 14B0:086A 0000 C=DATA   S=_DATA          G=DGROUP  M=LONGTOA    ACBP=48
 14B0:086A 0000 C=DATA   S=_DATA          G=DGROUP  M=LSEEK      ACBP=48
 14B0:086A 0018 C=DATA   S=_DATA          G=DGROUP  M=NEW        ACBP=48
 14B0:0882 0000 C=DATA   S=_DATA          G=DGROUP  M=N_LXMUL    ACBP=48
 14B0:0882 0000 C=DATA   S=_DATA          G=DGROUP  M=N_PCMP     ACBP=48
 14B0:0882 0000 C=DATA   S=_DATA          G=DGROUP  M=SETUPIO    ACBP=48
 14B0:0882 0000 C=DATA   S=_DATA          G=DGROUP  M=SIGDATA    ACBP=48
 14B0:0882 0002 C=DATA   S=_DATA          G=DGROUP  M=STKLEN     ACBP=48
 14B0:0884 0101 C=DATA   S=_DATA          G=DGROUP  M=CTYPE      ACBP=48
 14B0:0986 0000 C=DATA   S=_DATA          G=DGROUP  M=TOUPPER    ACBP=48
 14B0:0986 0067 C=DATA   S=_DATA          G=DGROUP  M=VPRINTER   ACBP=48
 14B0:09EE 0000 C=DATA   S=_DATA          G=DGROUP  M=XXAS       ACBP=48
 14B0:09EE 0128 C=DATA   S=_DATA          G=DGROUP  M=XXV        ACBP=48
 14B0:0B16 0002 C=DATA   S=_DATA          G=DGROUP  M=CPUTYPE    ACBP=48
 14B0:0B18 0000 C=DATA   S=_DATA          G=DGROUP  M=FARHEAP    ACBP=48
 14B0:0B18 0002 C=DATA   S=_DATA          G=DGROUP  M=FBRK       ACBP=48
 14B0:0B1A 0027 C=DATA   S=_DATA          G=DGROUP  M=SIGNAL     ACBP=48
 14B0:0B42 0000 C=DATA   S=_DATA          G=DGROUP  M=FFLUSH     ACBP=48
 14B0:0B42 0000 C=DATA   S=_DATA          G=DGROUP  M=FLUSHALL   ACBP=48
 14B0:0B42 0000 C=DATA   S=_DATA          G=DGROUP  M=FPUTS      ACBP=48
 14B0:0B42 0000 C=DATA   S=_DATA          G=DGROUP  M=FSEEK      ACBP=48
 14B0:0B42 0000 C=DATA   S=_DATA          G=DGROUP  M=MEMCMP     ACBP=48
 14B0:0B42 0000 C=DATA   S=_DATA          G=DGROUP  M=MEMCPY     ACBP=48
 14B0:0B42 0000 C=DATA   S=_DATA          G=DGROUP  M=MEMSET     ACBP=48
 14B0:0B42 0000 C=DATA   S=_DATA          G=DGROUP  M=MOVMEM     ACBP=48
 14B0:0B42 02D0 C=DATA   S=_DATA          G=DGROUP  M=PERROR     ACBP=48
 14B0:0E12 0001 C=DATA   S=_DATA          G=DGROUP  M=PUTC       ACBP=48
 14B0:0E14 0004 C=DATA   S=_DATA          G=DGROUP  M=SETVBUF    ACBP=48
 14B0:0E18 0000 C=DATA   S=_DATA          G=DGROUP  M=SPRINTF    ACBP=48
 14B0:0E18 0000 C=DATA   S=_DATA          G=DGROUP  M=STRCMP     ACBP=48
 14B0:0E18 0000 C=DATA   S=_DATA          G=DGROUP  M=STRCPY     ACBP=48
 14B0:0E18 0000 C=DATA   S=_DATA          G=DGROUP  M=WRITE      ACBP=48
 14B0:0E18 0000 C=DATA   S=_DATA          G=DGROUP  M=WRITEA     ACBP=48
 14B0:0E18 0000 C=DATA   S=_DATA          G=DGROUP  M=XFFLUSH    ACBP=48
 14B0:0E18 0000 C=DATA   S=_DATA          G=DGROUP  M=XALLOC     ACBP=48
 14B0:0E18 0000 C=DATA   S=_DATA          G=DGROUP  M=XMSG       ACBP=48
 14B0:0E18 0012 C=DATA   S=_DATA          G=DGROUP  M=XX         ACBP=48
 14B0:0E2A 0031 C=DATA   S=_DATA          G=DGROUP  M=CVTFAK     ACBP=48
 14B0:0E5C 0000 C=DATA   S=_DATA          G=DGROUP  M=REALCVT    ACBP=48
 14B0:0E5C 0000 C=DATA   S=_DATA          G=DGROUP  M=SETBLOCK   ACBP=48
 14B0:0E5C 0000 C=DATA   S=_DATA          G=DGROUP  M=CTOR2      ACBP=48
 14B0:0E5C 0000 C=DATA   S=_DATA          G=DGROUP  M=CTOR3      ACBP=48
 14B0:0E5C 0066 C=DATA   S=_DATA          G=DGROUP  M=STRINGS    ACBP=48
 14B0:0EC2 0000 C=DATA   S=_CVTSEG        G=DGROUP  M=C0.ASM     ACBP=48
 14B0:0EC2 0002 C=DATA   S=_CVTSEG        G=DGROUP  M=CVTFAK     ACBP=48
 14B0:0EC4 0000 C=DATA   S=_CVTSEG        G=DGROUP  M=REALCVT    ACBP=48
 14B0:0EC4 0000 C=DATA   S=_SCNSEG        G=DGROUP  M=C0.ASM     ACBP=48
 14B0:0EC4 0006 C=DATA   S=_SCNSEG        G=DGROUP  M=CVTFAK     ACBP=48
 14B0:0ECA 0000 C=CONST  S=_CONST         G=DGROUP  M=C0.ASM     ACBP=48
 14B0:0ECA 0000 C=CONST  S=_CONST         G=DGROUP  M=ISRS       ACBP=48
 14B0:0ECA 0000 C=INITDATA S=_INIT_         G=DGROUP  M=C0.ASM     ACBP=48
 14B0:0ECA 0006 C=INITDATA S=_INIT_         G=DGROUP  M=NEW        ACBP=48
 14B0:0ED0 0006 C=INITDATA S=_INIT_         G=DGROUP  M=SETUPIO    ACBP=48
 14B0:0ED6 0006 C=INITDATA S=_INIT_         G=DGROUP  M=CPUTYPE    ACBP=48
 14B0:0EDC 0000 C=INITDATA S=_INITEND_      G=DGROUP  M=C0.ASM     ACBP=28
 14B0:0EDC 0000 C=EXITDATA S=_EXIT_         G=DGROUP  M=C0.ASM     ACBP=48
 14B0:0EDC 0006 C=EXITDATA S=_EXIT_         G=DGROUP  M=NEW        ACBP=48
 14B0:0EE2 0000 C=EXITDATA S=_EXITEND_      G=DGROUP  M=C0.ASM     ACBP=28
 14B0:0EE2 0000 C=BSS    S=_BSS           G=DGROUP  M=C0.ASM     ACBP=48
 14B0:0EE2 0007 C=BSS    S=_BSS           G=DGROUP  M=..\..\CODE\INIT\PC\MAIN.C ACBP=48
 14B0:0EEA 0000 C=BSS    S=_BSS           G=DGROUP  M=..\..\CODE\PTVMAIN\0_1\PTVMAIN.C ACBP=48
 14B0:0EEA 37CA C=BSS    S=_BSS           G=DGROUP  M=..\..\CODE\RTXCOBJ\0_1\RTXCOBJ.C ACBP=48
 14B0:46B4 002E C=BSS    S=_BSS           G=DGROUP  M=..\..\CODE\CHNDRV\PC\RS232\0_1\RS232.C ACBP=48
 14B0:46E2 000C C=BSS    S=_BSS           G=DGROUP  M=..\..\CODE\INSTRU\0_1\INSTRU.C ACBP=48
 14B0:46EE 0001 C=BSS    S=_BSS           G=DGROUP  M=..\..\CODE\INTERP\0_1\INTERP.C ACBP=48
 14B0:46F0 0000 C=BSS    S=_BSS           G=DGROUP  M=..\..\CODE\INTERP\0_1\UTIL.C ACBP=48
 14B0:46F0 0528 C=BSS    S=_BSS           G=DGROUP  M=..\..\RTXCDEF\PC\CTASK.C ACBP=48
 14B0:4C18 02E0 C=BSS    S=_BSS           G=DGROUP  M=..\..\RTXCDEF\PC\CCLOCK.C ACBP=48
 14B0:4EF8 0014 C=BSS    S=_BSS           G=DGROUP  M=..\..\RTXCDEF\PC\CMBOX.C ACBP=48
 14B0:4F0C 0252 C=BSS    S=_BSS           G=DGROUP  M=..\..\RTXCDEF\PC\CPART.C ACBP=48
 14B0:515E 00D8 C=BSS    S=_BSS           G=DGROUP  M=..\..\RTXCDEF\PC\CQUEUE.C ACBP=48
 14B0:5236 0D38 C=BSS    S=_BSS           G=DGROUP  M=..\..\RTXCDEF\PC\CRES.C ACBP=48
 14B0:5F6E 0188 C=BSS    S=_BSS           G=DGROUP  M=..\..\RTXCDEF\PC\CSEMA.C ACBP=48
 14B0:60F6 0000 C=BSS    S=_BSS           G=DGROUP  M=RTXCAPI    ACBP=48
 14B0:60F6 0004 C=BSS    S=_BSS           G=DGROUP  M=RTXCINIT   ACBP=48
 14B0:60FA 0000 C=BSS    S=_BSS           G=DGROUP  M=RTXCASM    ACBP=48
 14B0:60FA 0022 C=BSS    S=_BSS           G=DGROUP  M=RTXC       ACBP=48
 14B0:611C 0004 C=BSS    S=_BSS           G=DGROUP  M=CLKDRV     ACBP=48
 14B0:6120 0080 C=BSS    S=_BSS           G=DGROUP  M=ATEXIT     ACBP=48
 14B0:61A0 0000 C=BSS    S=_BSS           G=DGROUP  M=IOERROR    ACBP=48
 14B0:61A0 0000 C=BSS    S=_BSS           G=DGROUP  M=ISATTY     ACBP=48
 14B0:61A0 0000 C=BSS    S=_BSS           G=DGROUP  M=LONGTOA    ACBP=48
 14B0:61A0 0000 C=BSS    S=_BSS           G=DGROUP  M=LSEEK      ACBP=48
 14B0:61A0 0000 C=BSS    S=_BSS           G=DGROUP  M=NEW        ACBP=48
 14B0:61A0 0000 C=BSS    S=_BSS           G=DGROUP  M=SETUPIO    ACBP=48
 14B0:61A0 0004 C=BSS    S=_BSS           G=DGROUP  M=SIGDATA    ACBP=48
 14B0:61A4 0000 C=BSS    S=_BSS           G=DGROUP  M=VPRINTER   ACBP=48
 14B0:61A4 0000 C=BSS    S=_BSS           G=DGROUP  M=XXAS       ACBP=48
 14B0:61A4 0004 C=BSS    S=_BSS           G=DGROUP  M=XXV        ACBP=48
 14B0:61A8 0008 C=BSS    S=_BSS           G=DGROUP  M=SIGNAL     ACBP=48
 14B0:61B0 0000 C=BSS    S=_BSS           G=DGROUP  M=MEMCMP     ACBP=48
 14B0:61B0 0000 C=BSS    S=_BSS           G=DGROUP  M=MEMCPY     ACBP=48
 14B0:61B0 0000 C=BSS    S=_BSS           G=DGROUP  M=MEMSET     ACBP=48
 14B0:61B0 0000 C=BSS    S=_BSS           G=DGROUP  M=MOVMEM     ACBP=48
 14B0:61B0 0001 C=BSS    S=_BSS           G=DGROUP  M=PUTC       ACBP=48
 14B0:61B2 0000 C=BSS    S=_BSS           G=DGROUP  M=STRCMP     ACBP=48
 14B0:61B2 0000 C=BSS    S=_BSS           G=DGROUP  M=STRCPY     ACBP=48
 14B0:61B2 0000 C=BSS    S=_BSS           G=DGROUP  M=WRITEA     ACBP=48
 14B0:61B2 000A C=BSS    S=_BSS           G=DGROUP  M=XX         ACBP=48
 14B0:61BC 0000 C=BSS    S=_BSS           G=DGROUP  M=SETBLOCK   ACBP=48
 14B0:61BC 0000 C=BSS    S=_BSS           G=DGROUP  M=CTOR2      ACBP=48
 14B0:61BC 0000 C=BSS    S=_BSS           G=DGROUP  M=CTOR3      ACBP=48
 14B0:61BC 0000 C=BSS    S=_BSS           G=DGROUP  M=STRINGS    ACBP=48
 14B0:61BC 0000 C=BSSEND S=_BSSEND        G=DGROUP  M=C0.ASM     ACBP=28
 1ACC:0000 0131 C=STACK  S=_STACK         G=(none)  M=C0.ASM     ACBP=74
 1ACC:0000 0080 C=STACK  S=_STACK         G=(none)  M=EMUVARS    ACBP=78

  Address         Publics by Name

 0000:02D1       operator delete(void far*)
 0000:02E7       operator delete[](void far*)
 0000:0706       operator new(unsigned int)
 0000:06D8 idle  set_new_handler(void(far*)())
 0000:0FC3 idle  set_terminate(void(far*)())
 0000:10B7 idle  set_unexpected(void(far*)())
 0BE7:000D       string::string(const string far&)
 0BE7:00F6       string::string(const char far*)
 0BE7:0312       string::~string()
 0BE7:0398 idle  string::assert_element(unsigned int) const
 0BE7:0456 idle  string::assert_index(unsigned int) const
 14B0:0E5C idle  string::case_sensitive
 14B0:0E66 idle  string::freeboard
 14B0:0E62 idle  string::initial_capac
 0BE7:0AA1 idle  string::initial_capacity(unsigned int)
 0BE7:0AE8 idle  string::max_waste(unsigned int)
 14B0:0E5E idle  string::paranoid_check
 14B0:0E64 idle  string::resize_inc
 0BE7:0ABE idle  string::resize_increment(unsigned int)
 0BE7:0A4A idle  string::set_case_sensitive(int)
 0BE7:0A67 idle  string::set_paranoid_check(int)
 14B0:0E60 idle  string::skip_white
 0BE7:0A84 idle  string::skip_whitespace(int)
 0000:0FB9 idle  terminate()
 0BE7:05CF       tstringref::tstringref(const char far*,unsigned int,const char far*,unsigned int,unsigned int)
 0BE7:06B5       tstringref::~tstringref()
 0BE7:0783 idle  tstringref::check_freeboard()
 0BE7:07EB idle  tstringref::grow_to(unsigned int)
 0BE7:0715 idle  tstringref::reserve(unsigned int)
 0BE7:084D idle  tstringref::round_capacity(unsigned int)
 0BE7:088C idle  tstringref::splice(unsigned int,unsigned int,const char far*,unsigned int)
 0BE7:0514 idle  tsubstring::assert_element(unsigned int) const
 0000:5A76 idle  typeinfo::operator =(const typeinfo far&)
 0000:5A08 idle  typeinfo::typeinfo(const typeinfo far&)
 0000:5A85 idle  typeinfo::~typeinfo()
 0000:5AB9 idle  typeinfo::operator ==(const typeinfo far&) const
 0000:5ADF idle  typeinfo::operator !=(const typeinfo far&) const
 0000:5B00 idle  typeinfo::before(const typeinfo far&) const
 0000:5B78 idle  typeinfo::name() const
 0000:10AE idle  unexpected()
 0000:293E       xalloc::xalloc(const string far&,unsigned int)
 0000:29BD       xalloc::raise()
 0000:2DBC idle  xmsg::operator =(const xmsg far&)
 0000:2C2E       xmsg::xmsg(const xmsg far&)
 0000:2B63       xmsg::xmsg(const string far&)
 0000:2CD9       xmsg::~xmsg()
 0000:2D45 idle  xmsg::raise()
 0000:066D idle  xnew_handler()
 0000:452E       _catchcleanup()
 0000:3DD6 idle  _rethrowexception(unsigned int,unsigned char far*)
 0000:3D7D       _throwexception(void far*,void far*,void far*,void far*,unsigned int,unsigned int,unsigned int,unsigned char far*)
 0000:5E5B idle  __dynamiccast(void far*,void far*,void far*,void far*,int)
 0000:1148 idle  __getpolymorphicdtc(void far*,unsigned int)
 0000:119C idle  __getpolymorphicdtcfar(void far*,unsigned int)
 0000:5B92 idle  __gettypeinfo(void far*,void far*,void far*,void far*)
 0000:0F2A       __refdestructorcount()
 0000:0F30 idle  __refexceptionlist()
 0000:59F6 idle  __throwexceptionname()
 0000:59D6 idle  __throwfilename()
 0000:59E8 idle  __throwlinenumber()
 14B0:0000 idle  DATASEG@
 0000:026D idle  DGROUP@
 0000:03EB       F_LDIV@
 0000:03FA idle  F_LMOD@
 0000:03F2       F_LUDIV@
 0000:0402       F_LUMOD@
 0000:0499       F_LXLSH@
 0000:03D1       F_LXMUL@
 0000:04BA idle  F_PADD@
 0000:04E9 idle  F_PSUB@
 0000:03EB idle  LDIV@
 0000:03FA idle  LMOD@
 0000:03F2 idle  LUDIV@
 0000:0402 idle  LUMOD@
 0000:0499 idle  LXLSH@
 0000:03D1 idle  LXMUL@
 0000:03E8 idle  N_LDIV@
 0000:03F7 idle  N_LMOD@
 0000:03EF       N_LUDIV@
 0000:03FF idle  N_LUMOD@
 0000:0496       N_LXLSH@
 0000:0943       N_LXMUL@
 0000:04B7       N_PADD@
 0000:095A       N_PCMP@
 0000:04E6 idle  N_PSUB@
 0000:04BA idle  PADD@
 0000:04E9 idle  PSUB@
 0000:028C       _ABORT
 0000:02A0 idle  _ATEXIT
 07BE:0008 idle  _BITPOS
 14B0:0EE2       _BRKFLAG
 14B0:0EE3 idle  _BRKTASK
 07BE:0101 idle  _BTOL
 07BE:047C idle  _CHECKTEXTASCII
 0BDF:000B       _CLKC
 14B0:4C18       _CLKQ
 14B0:610E idle  _CLKQFL
 14B0:6112 idle  _CLKQPTR
 14B0:00D6       _CLKRATE
 0BDF:002B       _CLKSTART
 0BDF:006D       _CLKSTOP
 14B0:00D4 idle  _CLKTICK
 080A:326A       _CLOCKINIT
 07BE:02AA idle  _CMEMCPY
 07BE:0263 idle  _CSTRCAT
 07BE:032C idle  _CSTRCMP
 07BE:02EE idle  _CSTRCPY
 07BE:0231 idle  _CSTRLEN
 07BE:035F idle  _CSTRNCMP
 064C:0086       _DELETE
 064C:02FE idle  _DELETETEVENT
 064C:0DED idle  _DELETETEVENTLIST
 064C:04AF idle  _DELETETRESOURCE
 064C:100A idle  _DELETETSTREAM
 064C:06FE       _DELETETTHREAD
 064C:099C idle  _DELETETTIMER
 14B0:00EE       _DNPARTS
 14B0:00B8       _DNTASKS
 14B0:6104 idle  _DPHFL
 14B0:6102 idle  _DTCBFL
 14B0:007E       _ERRNO
 0000:0386       _EXIT
 0000:13DE idle  _FARFREE
 0000:14F2 idle  _FARMALLOC
 0000:1656 idle  _FARREALLOC
 0000:1C6C       _FFLUSH
 07BE:03A7 idle  _FINDNEXTASCII
 0000:1D3D       _FLUSHALL
 0000:2186 idle  _FPUTC
 0000:2311 idle  _FPUTCHAR
 0000:1D89       _FPUTS
 0000:13DE       _FREE
 064C:006F idle  _FREE2
 0000:1E67       _FSEEK
 0000:1EE9 idle  _FTELL
 080A:0B6B idle  _GETFLAGS
 080A:0B6E       _GETVECT
 14B0:0EEA idle  _HEAPALLOC
 07BE:0029 idle  _HEXTOBYTE
 14B0:60FA       _HIPRITSK
 07BE:0053 idle  _HTOL
 14B0:0622 idle  _INIT_FLAGS
 080A:0AB2 idle  _INIT_FPU
 14B0:46E2       _INSTRUMENTCONTROL
 07B5:0001       _INSTRUMENT_CONTROL_TASK
 14B0:46EA idle  _INSTRUTIMER
 074F:0001       _INT232
 07BD:0004       _INTERPERTER
 14B0:46E6 idle  _INTERPERTERTHREAD
 0000:0569       _ISATTY
 14B0:611A       _ISRCNT
 080A:3CF2       _ISVCBRK
 080A:3CB0       _ISVCCLK
 080A:3D01       _ISVCCOM
 080A:0B3A       _ISVCRTX
 080A:0356 idle  _KS_ACK
 080A:003C       _KS_ALLOC
 080A:07AB idle  _KS_ALLOCT
 080A:04B0 idle  _KS_ALLOCW
 080A:01FE idle  _KS_ALLOC_PART
 080A:01C5       _KS_ALLOC_TASK
 080A:005F       _KS_ALLOC_TIMER
 080A:0006 idle  _KS_BLOCK
 080A:04DD       _KS_CREATE_PART
 080A:0592 idle  _KS_DEFMBOXSEMA
 080A:0213 idle  _KS_DEFPART
 080A:0077       _KS_DEFPRIORITY
 080A:05B0 idle  _KS_DEFQSEMA
 080A:07F1       _KS_DEFQUEUE
 080A:052A idle  _KS_DEFRES
 080A:0095 idle  _KS_DEFSLICE
 080A:0181       _KS_DEFTASK
 080A:056E idle  _KS_DEFTASK_ARG
 080A:0769 idle  _KS_DEFTIME
 080A:00DA       _KS_DELAY
 080A:0107 idle  _KS_DEQUEUE
 080A:082F idle  _KS_DEQUEUET
 080A:05D4       _KS_DEQUEUEW
 080A:0607 idle  _KS_ELAPSE
 080A:0138 idle  _KS_ENQUEUE
 080A:0875 idle  _KS_ENQUEUET
 080A:062B       _KS_ENQUEUEW
 080A:0169       _KS_EXECUTE
 080A:01DA       _KS_FREE
 080A:0243 idle  _KS_FREE_PART
 080A:0261       _KS_FREE_TIMER
 080A:065E idle  _KS_INQMAP
 080A:08BB       _KS_INQPRIORITY
 080A:08D9 idle  _KS_INQQUEUE
 080A:050A       _KS_INQRES
 080A:08E8       _KS_INQSEMA
 080A:0A8F idle  _KS_INQSLICE
 080A:08F6 idle  _KS_INQTASK
 080A:0550 idle  _KS_INQTASK_ARG
 080A:0751 idle  _KS_INQTIME
 080A:0787       _KS_INQTIMER
 080A:32F7 idle  _KS_ISRALLOC
 080A:335F       _KS_ISREXIT
 080A:333F       _KS_ISRSIGNAL
 080A:380A       _KS_ISRTICK
 080A:0283 idle  _KS_LOCK
 080A:08FE idle  _KS_LOCKT
 080A:066D       _KS_LOCKW
 080A:002A idle  _KS_NOP
 080A:02A8       _KS_PEND
 080A:0938 idle  _KS_PENDM
 080A:069C idle  _KS_PURGEQUEUE
 080A:02C0 idle  _KS_RECEIVE
 080A:0956 idle  _KS_RECEIVET
 080A:06B4 idle  _KS_RECEIVEW
 080A:09AC       _KS_RESTART_TIMER
 080A:02E9       _KS_RESUME
 080A:0301 idle  _KS_SEND
 080A:09EA idle  _KS_SENDT
 080A:06F1 idle  _KS_SENDW
 080A:0336       _KS_SIGNAL
 080A:0A3C idle  _KS_SIGNALM
 080A:038F       _KS_START_TIMER
 080A:0369       _KS_STOP_TIMER
 080A:03D1       _KS_SUSPEND
 080A:03E9       _KS_TERMINATE
 080A:0401 idle  _KS_UNBLOCK
 080A:041F       _KS_UNLOCK
 080A:043F       _KS_USER
 080A:0024 idle  _KS_VERSION
 080A:046C       _KS_WAIT
 080A:0730       _KS_WAITM
 080A:0A5A       _KS_WAITT
 080A:0496 idle  _KS_YIELD
 0000:0624       _LSEEK
 0640:0005       _MAIN
 0000:14E8       _MALLOC
 064C:000B idle  _MALLOC2
 080A:3017       _MBOXINIT
 14B0:00DA idle  _MBOXNAME
 0000:1FCA       _MEMCMP
 0000:1FF2       _MEMCPY
 0000:20B0       _MEMMOVE
 0000:203C       _MEMSET
 14B0:4EF8       _MHEADER
 0000:205E idle  _MOVMEM
 064C:004F       _NEW
 064C:021D       _NEWTEVENT
 064C:0D34 idle  _NEWTEVENTLIST
 064C:03DE       _NEWTRESOURCE
 064C:0F4A       _NEWTSTREAM
 064C:060D       _NEWTTHREAD
 064C:08D0       _NEWTTIMER
 14B0:00D8       _NMBOXES
 07BE:0003 idle  _NONE
 14B0:00EC       _NPARTS
 14B0:0102       _NQUEUES
 14B0:0126       _NRES
 14B0:0212       _NSEMAS
 14B0:60FC idle  _NSRTTCB
 14B0:00B6       _NTASKS
 14B0:00D2       _NTMRS
 14B0:60F6 idle  _OLDISR
 07BE:00AC idle  _OTOL
 080A:305B       _PARTINIT
 14B0:00F8 idle  _PARTNAME
 0000:20D5 idle  _PERROR
 14B0:4F0C       _PHEADER
 14B0:00F0       _PKHEADER
 14B0:0090 idle  _POINTER_BIAS
 0648:0031       _PTVEND
 0648:0002       _PTVMAIN
 14B0:515E       _QHEADER
 14B0:0104       _QKHEADER
 080A:318A       _QUEUEINIT
 14B0:0114 idle  _QUEUENAME
 0000:1BD5       _RAISE
 0000:3F5D idle  _RAISEEXCEPTION
 0000:164F       _REALLOC
 080A:2FCE       _RESINIT
 14B0:0128 idle  _RESNAME
 14B0:5236       _RHEADER
 074F:060A       _RS232GETCHAR
 074F:064A idle  _RS232GETLASTERROR
 074F:029B idle  _RS232I
 074F:02DC idle  _RS232O
 074F:04E0 idle  _RS232PRINTF
 074F:0423 idle  _RS232PUTCHAR
 074F:0474       _RS232PUTS
 074F:0337 idle  _RS232SETUP
 074F:0108       _RS232_INIT
 074F:024E       _RS232_STOP
 14B0:6106 idle  _RTCTICK
 14B0:610A idle  _RTCTIME
 14AF:0000 idle  _RTCTIMETICK
 080A:0C17       _RTXC
 080A:0AEE       _RTXCINIT
 14B0:061E       _RTXCSTK
 080A:0B25       _RTXCSTOP
 14B0:0422 idle  _RTXCTOS
 14B0:00BC       _RTXKTCB
 14B0:46F0       _RTXTCB
 14B0:6100 idle  _SEMAGET
 080A:320E       _SEMAINIT
 14B0:0216 idle  _SEMANAME
 14B0:60FE idle  _SEMAPUT
 14B0:5F8E       _SEMAT
 0000:606B       _SETBLOCK
 0000:2016 idle  _SETMEM
 0000:2534       _SETVBUF
 080A:0B93       _SETVECT
 14B0:5F6E       _SIGLIST
 14B0:0214       _SIGLISTSIZE
 0000:1AA7 idle  _SIGNAL
 064C:009F idle  _SLEEP
 14B0:6116 idle  _SLICEUP
 0000:269A idle  _SPRINTF
 14B0:00BA idle  _STARTLS
 0CAD:0000 idle  _STK
 0000:26E5       _STRCMP
 0000:2715       _STRCPY
 0BDE:0003       _STRLEN
 080A:2E6F       _TASKINIT
 14B0:00C8 idle  _TASKNAME
 14B0:009C idle  _TEVENTLISTMAP
 14B0:438E idle  _TEVENTLISTPARTITION
 064C:09E9 idle  _TEVENTLIST_APPEND
 064C:0A6D idle  _TEVENTLIST_CLEAR
 064C:0ADA idle  _TEVENTLIST_INLIST
 064C:09C3 idle  _TEVENTLIST_TEVENTLIST
 064C:0B32 idle  _TEVENTLIST_WAIT
 064C:09D6 idle  _TEVENTLIST__TEVENTLIST
 14B0:0094 idle  _TEVENTMAP
 14B0:0EEE idle  _TEVENTPARTITION
 064C:01FD idle  _TEVENT_INQSEMA
 064C:01E5 idle  _TEVENT_PEND
 064C:01CD idle  _TEVENT_SIGNAL
 064C:00BA idle  _TEVENT_TEVENT
 064C:0123 idle  _TEVENT_WAITT
 064C:010F idle  _TEVENT__TEVENT
 0000:0A1F       _TOUPPER
 14B0:0096 idle  _TRESOURCEMAP
 14B0:1EEE idle  _TRESOURCEPARTITION
 064C:038E idle  _TRESOURCE_LOCK
 064C:03BE idle  _TRESOURCE_OWNER
 064C:0325 idle  _TRESOURCE_TRESOURCE
 064C:03A6 idle  _TRESOURCE_UNLOCK
 064C:037A idle  _TRESOURCE__TRESOURCE
 14B0:009E idle  _TSTREAMMAP
 14B0:45F0 idle  _TSTREAMPARTITION
 064C:0EFC idle  _TSTREAM_GET
 064C:0F2A idle  _TSTREAM_PUT
 064C:0E14 idle  _TSTREAM_TSTREAM
 064C:0EC9 idle  _TSTREAM__TSTREAM
 14B0:0098 idle  _TTHREADMAP
 14B0:3AEE idle  _TTHREADPARTITION
 064C:053F idle  _TTHREAD_EXECUTE
 064C:05CA idle  _TTHREAD_GETPRIORITY
 064C:05AE idle  _TTHREAD_RESUME
 064C:05EC idle  _TTHREAD_SETPRIORITY
 064C:056D idle  _TTHREAD_SUSPEND
 064C:04D6 idle  _TTHREAD_TTHREAD
 064C:0551 idle  _TTHREAD__TTHREAD
 064C:0842 idle  _TTIMER_GETPERIOD
 064C:0797 idle  _TTIMER_SETPERIOD
 064C:0850 idle  _TTIMER_TICK
 064C:0725 idle  _TTIMER_TTIMER
 064C:0767 idle  _TTIMER__TTIMER
 080A:0B68 idle  _UT_DISABLE
 080A:0B66 idle  _UT_ENABLE
 080A:0B6A idle  _UT_NOP
 0000:26C0       _VSPRINTF
 14B0:0B16       __8086
 0000:0271       __ABORT
 0000:1000 idle  __AHINCR
 0000:000C idle  __AHSHIFT
 14B0:0644       __ATEXITCNT
 14B0:6120       __ATEXITTBL
 0000:175E       __BRK
 14B0:0088       __BRKLVL
 14B0:006A idle  __C0ARGC
 14B0:006C idle  __C0ARGV
 14B0:0070 idle  __C0ENVIRON
 0000:03AF idle  __CEXIT
 0000:0159       __CHECKNULL
 0000:0146       __CLEANUP
 14B0:0884       __CTYPE
 0000:5981 idle  __CURREXCCONTEXT
 0000:0000  Abs  __CVTFAK
 0000:03C1 idle  __C_EXIT
 14B0:61A4 idle  __DESTRUCTORCOUNTPTR
 14B0:080E idle  __DOSERRNO
 0000:0555 idle  __DOSERROR
 14B0:0810 idle  __DOSERRORTOSV
 1ACC:0020       __EMU
 14B0:0074 idle  __ENVLNG
 14B0:0076 idle  __ENVSEG
 14B0:0078 idle  __ENVSIZE
 0000:11F4       __EXCEPTINIT
 0000:4C41       __EXCEPTIONHANDLER
 14B0:0080 idle  __EXCEPTION_LIST
 0000:0399       __EXIT
 14B0:0646       __EXITBUF
 14B0:064A idle  __EXITFOPEN
 14B0:064E idle  __EXITOPEN
 14B0:080C       __FPSTKLEN
 0000:2166 idle  __FPUTC
 0000:2329       __FPUTN
 0000:3F11 idle  __GLOBAL_UNWIND
 14B0:0084       __HEAPBASE
 14B0:008C       __HEAPTOP
 14B0:005A idle  __INT0VECTOR
 14B0:005E idle  __INT4VECTOR
 14B0:0062 idle  __INT5VECTOR
 14B0:0066 idle  __INT6VECTOR
 0000:0517       __IOERROR
 0000:4B6B idle  __LOCAL_UNWIND
 0000:057E       __LONGTOA
 0000:026F idle  __MMODEL
 14B0:0870 idle  __NEW_HANDLER
 14B0:07E2       __NFILE
 14B0:07E4       __OPENFD
 14B0:007C idle  __OSMAJOR
 14B0:007D idle  __OSMINOR
 14B0:007C idle  __OSVERSION
 14B0:007A       __PSP
 0000:6067       __REALCVT
 14B0:0EC2       __REALCVTVECTOR
 0000:01BB       __RESTOREZERO
 0000:4B8B idle  __RETURN_UNWIND
 0000:28A4       __RTL_WRITE
 0000:17A1       __SBRK
 14B0:0EC4 idle  __SCANTODVECTOR
 0000:097B       __SETUPIO
 14B0:0882       __STKLEN
 14B0:0652       __STREAMS
 14B0:0B42 idle  __SYS_ERRLIST
 14B0:0C02       __SYS_NERR
 0000:015A       __TERMINATE
 07BE:0153 idle  __ULTOA
 0000:0600 idle  __UTOA
 14B0:007C idle  __VERSION
 0000:0A67       __VPRINTER
 0000:28E3 idle  __WRITE
 0000:28FF       __XFFLUSH
 14B0:0082 idle  ___BRKLVL
 0000:102F       ___CALL_TERMINATE
 0000:10F9       ___CALL_UNEXPECTED
 14B0:09EE idle  ___CPPEXCEPTIONLIST
 0000:02FD       ___ERRORMESSAGE
 14B0:09F2 idle  ___EXCEPTFLAGS
 14B0:0A16 idle  ___EXCEPTIONNAMEBUFF
 14B0:0A12 idle  ___EXCEPTMEMALLOCVARS
 14B0:0A0E idle  ___EXCEPTSTATICBUFFP
 14B0:0A96 idle  ___EXCEPTSTATICXBUFF
 0000:0FA5       ___EXITEXCEPTBLOCKS
 0000:129E idle  ___FIRST
 0000:0F36       ___INITEXCEPTBLOCKS
 0000:2EFA idle  ___JUMPTOCATCH__
 0000:12A0 idle  ___LAST
 0000:12A2 idle  ___ROVER
 14B0:09F4 idle  ___SAVEDDS
 14B0:09F6 idle  ___SAVEDSI
 14B0:61A0       ___SIGNALPTR
 14B0:09F8 idle  ___TERMINATEPTR
 14B0:0A00 idle  ___TERMINATE_DS
 14B0:0A0A idle  ___THROWEXCEPTIONNAME
 14B0:0A04 idle  ___THROWFILENAME
 14B0:0A08 idle  ___THROWLINENUMBER
 14B0:09FC idle  ___UNEXPECTDPTR
 14B0:0A02 idle  ___UNEXPECTD_DS
 0000:273E       ___WRITE
 14B0:086A       ___XALLOC

  Address         Publics by Value

 0000:0000  Abs  __CVTFAK
 0000:000C idle  __AHSHIFT
 0000:1000 idle  __AHINCR
 0000:0146       __CLEANUP
 0000:0159       __CHECKNULL
 0000:015A       __TERMINATE
 0000:01BB       __RESTOREZERO
 0000:026D idle  DGROUP@
 0000:026F idle  __MMODEL
 0000:0271       __ABORT
 0000:028C       _ABORT
 0000:02A0 idle  _ATEXIT
 0000:02D1       operator delete(void far*)
 0000:02E7       operator delete[](void far*)
 0000:02FD       ___ERRORMESSAGE
 0000:0386       _EXIT
 0000:0399       __EXIT
 0000:03AF idle  __CEXIT
 0000:03C1 idle  __C_EXIT
 0000:03D1 idle  LXMUL@
 0000:03D1       F_LXMUL@
 0000:03E8 idle  N_LDIV@
 0000:03EB idle  LDIV@
 0000:03EB       F_LDIV@
 0000:03EF       N_LUDIV@
 0000:03F2 idle  LUDIV@
 0000:03F2       F_LUDIV@
 0000:03F7 idle  N_LMOD@
 0000:03FA idle  F_LMOD@
 0000:03FA idle  LMOD@
 0000:03FF idle  N_LUMOD@
 0000:0402       F_LUMOD@
 0000:0402 idle  LUMOD@
 0000:0496       N_LXLSH@
 0000:0499 idle  LXLSH@
 0000:0499       F_LXLSH@
 0000:04B7       N_PADD@
 0000:04BA idle  F_PADD@
 0000:04BA idle  PADD@
 0000:04E6 idle  N_PSUB@
 0000:04E9 idle  F_PSUB@
 0000:04E9 idle  PSUB@
 0000:0517       __IOERROR
 0000:0555 idle  __DOSERROR
 0000:0569       _ISATTY
 0000:057E       __LONGTOA
 0000:0600 idle  __UTOA
 0000:0624       _LSEEK
 0000:066D idle  xnew_handler()
 0000:06D8 idle  set_new_handler(void(far*)())
 0000:0706       operator new(unsigned int)
 0000:0943       N_LXMUL@
 0000:095A       N_PCMP@
 0000:097B       __SETUPIO
 0000:0A1F       _TOUPPER
 0000:0A67       __VPRINTER
 0000:0F2A       __refdestructorcount()
 0000:0F30 idle  __refexceptionlist()
 0000:0F36       ___INITEXCEPTBLOCKS
 0000:0FA5       ___EXITEXCEPTBLOCKS
 0000:0FB9 idle  terminate()
 0000:0FC3 idle  set_terminate(void(far*)())
 0000:102F       ___CALL_TERMINATE
 0000:10AE idle  unexpected()
 0000:10B7 idle  set_unexpected(void(far*)())
 0000:10F9       ___CALL_UNEXPECTED
 0000:1148 idle  __getpolymorphicdtc(void far*,unsigned int)
 0000:119C idle  __getpolymorphicdtcfar(void far*,unsigned int)
 0000:11F4       __EXCEPTINIT
 0000:129E idle  ___FIRST
 0000:12A0 idle  ___LAST
 0000:12A2 idle  ___ROVER
 0000:13DE idle  _FARFREE
 0000:13DE       _FREE
 0000:14E8       _MALLOC
 0000:14F2 idle  _FARMALLOC
 0000:164F       _REALLOC
 0000:1656 idle  _FARREALLOC
 0000:175E       __BRK
 0000:17A1       __SBRK
 0000:1AA7 idle  _SIGNAL
 0000:1BD5       _RAISE
 0000:1C6C       _FFLUSH
 0000:1D3D       _FLUSHALL
 0000:1D89       _FPUTS
 0000:1E67       _FSEEK
 0000:1EE9 idle  _FTELL
 0000:1FCA       _MEMCMP
 0000:1FF2       _MEMCPY
 0000:2016 idle  _SETMEM
 0000:203C       _MEMSET
 0000:205E idle  _MOVMEM
 0000:20B0       _MEMMOVE
 0000:20D5 idle  _PERROR
 0000:2166 idle  __FPUTC
 0000:2186 idle  _FPUTC
 0000:2311 idle  _FPUTCHAR
 0000:2329       __FPUTN
 0000:2534       _SETVBUF
 0000:269A idle  _SPRINTF
 0000:26C0       _VSPRINTF
 0000:26E5       _STRCMP
 0000:2715       _STRCPY
 0000:273E       ___WRITE
 0000:28A4       __RTL_WRITE
 0000:28E3 idle  __WRITE
 0000:28FF       __XFFLUSH
 0000:293E       xalloc::xalloc(const string far&,unsigned int)
 0000:29BD       xalloc::raise()
 0000:2B63       xmsg::xmsg(const string far&)
 0000:2C2E       xmsg::xmsg(const xmsg far&)
 0000:2CD9       xmsg::~xmsg()
 0000:2D45 idle  xmsg::raise()
 0000:2DBC idle  xmsg::operator =(const xmsg far&)
 0000:2EFA idle  ___JUMPTOCATCH__
 0000:3D7D       _throwexception(void far*,void far*,void far*,void far*,unsigned int,unsigned int,unsigned int,unsigned char far*)
 0000:3DD6 idle  _rethrowexception(unsigned int,unsigned char far*)
 0000:3F11 idle  __GLOBAL_UNWIND
 0000:3F5D idle  _RAISEEXCEPTION
 0000:452E       _catchcleanup()
 0000:4B6B idle  __LOCAL_UNWIND
 0000:4B8B idle  __RETURN_UNWIND
 0000:4C41       __EXCEPTIONHANDLER
 0000:5981 idle  __CURREXCCONTEXT
 0000:59D6 idle  __throwfilename()
 0000:59E8 idle  __throwlinenumber()
 0000:59F6 idle  __throwexceptionname()
 0000:5A08 idle  typeinfo::typeinfo(const typeinfo far&)
 0000:5A76 idle  typeinfo::operator =(const typeinfo far&)
 0000:5A85 idle  typeinfo::~typeinfo()
 0000:5AB9 idle  typeinfo::operator ==(const typeinfo far&) const
 0000:5ADF idle  typeinfo::operator !=(const typeinfo far&) const
 0000:5B00 idle  typeinfo::before(const typeinfo far&) const
 0000:5B78 idle  typeinfo::name() const
 0000:5B92 idle  __gettypeinfo(void far*,void far*,void far*,void far*)
 0000:5E5B idle  __dynamiccast(void far*,void far*,void far*,void far*,int)
 0000:6067       __REALCVT
 0000:606B       _SETBLOCK
 0640:0005       _MAIN
 0648:0002       _PTVMAIN
 0648:0031       _PTVEND
 064C:000B idle  _MALLOC2
 064C:004F       _NEW
 064C:006F idle  _FREE2
 064C:0086       _DELETE
 064C:009F idle  _SLEEP
 064C:00BA idle  _TEVENT_TEVENT
 064C:010F idle  _TEVENT__TEVENT
 064C:0123 idle  _TEVENT_WAITT
 064C:01CD idle  _TEVENT_SIGNAL
 064C:01E5 idle  _TEVENT_PEND
 064C:01FD idle  _TEVENT_INQSEMA
 064C:021D       _NEWTEVENT
 064C:02FE idle  _DELETETEVENT
 064C:0325 idle  _TRESOURCE_TRESOURCE
 064C:037A idle  _TRESOURCE__TRESOURCE
 064C:038E idle  _TRESOURCE_LOCK
 064C:03A6 idle  _TRESOURCE_UNLOCK
 064C:03BE idle  _TRESOURCE_OWNER
 064C:03DE       _NEWTRESOURCE
 064C:04AF idle  _DELETETRESOURCE
 064C:04D6 idle  _TTHREAD_TTHREAD
 064C:053F idle  _TTHREAD_EXECUTE
 064C:0551 idle  _TTHREAD__TTHREAD
 064C:056D idle  _TTHREAD_SUSPEND
 064C:05AE idle  _TTHREAD_RESUME
 064C:05CA idle  _TTHREAD_GETPRIORITY
 064C:05EC idle  _TTHREAD_SETPRIORITY
 064C:060D       _NEWTTHREAD
 064C:06FE       _DELETETTHREAD
 064C:0725 idle  _TTIMER_TTIMER
 064C:0767 idle  _TTIMER__TTIMER
 064C:0797 idle  _TTIMER_SETPERIOD
 064C:0842 idle  _TTIMER_GETPERIOD
 064C:0850 idle  _TTIMER_TICK
 064C:08D0       _NEWTTIMER
 064C:099C idle  _DELETETTIMER
 064C:09C3 idle  _TEVENTLIST_TEVENTLIST
 064C:09D6 idle  _TEVENTLIST__TEVENTLIST
 064C:09E9 idle  _TEVENTLIST_APPEND
 064C:0A6D idle  _TEVENTLIST_CLEAR
 064C:0ADA idle  _TEVENTLIST_INLIST
 064C:0B32 idle  _TEVENTLIST_WAIT
 064C:0D34 idle  _NEWTEVENTLIST
 064C:0DED idle  _DELETETEVENTLIST
 064C:0E14 idle  _TSTREAM_TSTREAM
 064C:0EC9 idle  _TSTREAM__TSTREAM
 064C:0EFC idle  _TSTREAM_GET
 064C:0F2A idle  _TSTREAM_PUT
 064C:0F4A       _NEWTSTREAM
 064C:100A idle  _DELETETSTREAM
 074F:0001       _INT232
 074F:0108       _RS232_INIT
 074F:024E       _RS232_STOP
 074F:029B idle  _RS232I
 074F:02DC idle  _RS232O
 074F:0337 idle  _RS232SETUP
 074F:0423 idle  _RS232PUTCHAR
 074F:0474       _RS232PUTS
 074F:04E0 idle  _RS232PRINTF
 074F:060A       _RS232GETCHAR
 074F:064A idle  _RS232GETLASTERROR
 07B5:0001       _INSTRUMENT_CONTROL_TASK
 07BD:0004       _INTERPERTER
 07BE:0003 idle  _NONE
 07BE:0008 idle  _BITPOS
 07BE:0029 idle  _HEXTOBYTE
 07BE:0053 idle  _HTOL
 07BE:00AC idle  _OTOL
 07BE:0101 idle  _BTOL
 07BE:0153 idle  __ULTOA
 07BE:0231 idle  _CSTRLEN
 07BE:0263 idle  _CSTRCAT
 07BE:02AA idle  _CMEMCPY
 07BE:02EE idle  _CSTRCPY
 07BE:032C idle  _CSTRCMP
 07BE:035F idle  _CSTRNCMP
 07BE:03A7 idle  _FINDNEXTASCII
 07BE:047C idle  _CHECKTEXTASCII
 080A:0006 idle  _KS_BLOCK
 080A:0024 idle  _KS_VERSION
 080A:002A idle  _KS_NOP
 080A:003C       _KS_ALLOC
 080A:005F       _KS_ALLOC_TIMER
 080A:0077       _KS_DEFPRIORITY
 080A:0095 idle  _KS_DEFSLICE
 080A:00DA       _KS_DELAY
 080A:0107 idle  _KS_DEQUEUE
 080A:0138 idle  _KS_ENQUEUE
 080A:0169       _KS_EXECUTE
 080A:0181       _KS_DEFTASK
 080A:01C5       _KS_ALLOC_TASK
 080A:01DA       _KS_FREE
 080A:01FE idle  _KS_ALLOC_PART
 080A:0213 idle  _KS_DEFPART
 080A:0243 idle  _KS_FREE_PART
 080A:0261       _KS_FREE_TIMER
 080A:0283 idle  _KS_LOCK
 080A:02A8       _KS_PEND
 080A:02C0 idle  _KS_RECEIVE
 080A:02E9       _KS_RESUME
 080A:0301 idle  _KS_SEND
 080A:0336       _KS_SIGNAL
 080A:0356 idle  _KS_ACK
 080A:0369       _KS_STOP_TIMER
 080A:038F       _KS_START_TIMER
 080A:03D1       _KS_SUSPEND
 080A:03E9       _KS_TERMINATE
 080A:0401 idle  _KS_UNBLOCK
 080A:041F       _KS_UNLOCK
 080A:043F       _KS_USER
 080A:046C       _KS_WAIT
 080A:0496 idle  _KS_YIELD
 080A:04B0 idle  _KS_ALLOCW
 080A:04DD       _KS_CREATE_PART
 080A:050A       _KS_INQRES
 080A:052A idle  _KS_DEFRES
 080A:0550 idle  _KS_INQTASK_ARG
 080A:056E idle  _KS_DEFTASK_ARG
 080A:0592 idle  _KS_DEFMBOXSEMA
 080A:05B0 idle  _KS_DEFQSEMA
 080A:05D4       _KS_DEQUEUEW
 080A:0607 idle  _KS_ELAPSE
 080A:062B       _KS_ENQUEUEW
 080A:065E idle  _KS_INQMAP
 080A:066D       _KS_LOCKW
 080A:069C idle  _KS_PURGEQUEUE
 080A:06B4 idle  _KS_RECEIVEW
 080A:06F1 idle  _KS_SENDW
 080A:0730       _KS_WAITM
 080A:0751 idle  _KS_INQTIME
 080A:0769 idle  _KS_DEFTIME
 080A:0787       _KS_INQTIMER
 080A:07AB idle  _KS_ALLOCT
 080A:07F1       _KS_DEFQUEUE
 080A:082F idle  _KS_DEQUEUET
 080A:0875 idle  _KS_ENQUEUET
 080A:08BB       _KS_INQPRIORITY
 080A:08D9 idle  _KS_INQQUEUE
 080A:08E8       _KS_INQSEMA
 080A:08F6 idle  _KS_INQTASK
 080A:08FE idle  _KS_LOCKT
 080A:0938 idle  _KS_PENDM
 080A:0956 idle  _KS_RECEIVET
 080A:09AC       _KS_RESTART_TIMER
 080A:09EA idle  _KS_SENDT
 080A:0A3C idle  _KS_SIGNALM
 080A:0A5A       _KS_WAITT
 080A:0A8F idle  _KS_INQSLICE
 080A:0AB2 idle  _INIT_FPU
 080A:0AEE       _RTXCINIT
 080A:0B25       _RTXCSTOP
 080A:0B3A       _ISVCRTX
 080A:0B66 idle  _UT_ENABLE
 080A:0B68 idle  _UT_DISABLE
 080A:0B6A idle  _UT_NOP
 080A:0B6B idle  _GETFLAGS
 080A:0B6E       _GETVECT
 080A:0B93       _SETVECT
 080A:0C17       _RTXC
 080A:2E6F       _TASKINIT
 080A:2FCE       _RESINIT
 080A:3017       _MBOXINIT
 080A:305B       _PARTINIT
 080A:318A       _QUEUEINIT
 080A:320E       _SEMAINIT
 080A:326A       _CLOCKINIT
 080A:32F7 idle  _KS_ISRALLOC
 080A:333F       _KS_ISRSIGNAL
 080A:335F       _KS_ISREXIT
 080A:380A       _KS_ISRTICK
 080A:3CB0       _ISVCCLK
 080A:3CF2       _ISVCBRK
 080A:3D01       _ISVCCOM
 0BDE:0003       _STRLEN
 0BDF:000B       _CLKC
 0BDF:002B       _CLKSTART
 0BDF:006D       _CLKSTOP
 0BE7:000D       string::string(const string far&)
 0BE7:00F6       string::string(const char far*)
 0BE7:0312       string::~string()
 0BE7:0398 idle  string::assert_element(unsigned int) const
 0BE7:0456 idle  string::assert_index(unsigned int) const
 0BE7:0514 idle  tsubstring::assert_element(unsigned int) const
 0BE7:05CF       tstringref::tstringref(const char far*,unsigned int,const char far*,unsigned int,unsigned int)
 0BE7:06B5       tstringref::~tstringref()
 0BE7:0715 idle  tstringref::reserve(unsigned int)
 0BE7:0783 idle  tstringref::check_freeboard()
 0BE7:07EB idle  tstringref::grow_to(unsigned int)
 0BE7:084D idle  tstringref::round_capacity(unsigned int)
 0BE7:088C idle  tstringref::splice(unsigned int,unsigned int,const char far*,unsigned int)
 0BE7:0A4A idle  string::set_case_sensitive(int)
 0BE7:0A67 idle  string::set_paranoid_check(int)
 0BE7:0A84 idle  string::skip_whitespace(int)
 0BE7:0AA1 idle  string::initial_capacity(unsigned int)
 0BE7:0ABE idle  string::resize_increment(unsigned int)
 0BE7:0AE8 idle  string::max_waste(unsigned int)
 0CAD:0000 idle  _STK
 14AF:0000 idle  _RTCTIMETICK
 14B0:0000 idle  DATASEG@
 14B0:005A idle  __INT0VECTOR
 14B0:005E idle  __INT4VECTOR
 14B0:0062 idle  __INT5VECTOR
 14B0:0066 idle  __INT6VECTOR
 14B0:006A idle  __C0ARGC
 14B0:006C idle  __C0ARGV
 14B0:0070 idle  __C0ENVIRON
 14B0:0074 idle  __ENVLNG
 14B0:0076 idle  __ENVSEG
 14B0:0078 idle  __ENVSIZE
 14B0:007A       __PSP
 14B0:007C idle  __OSMAJOR
 14B0:007C idle  __VERSION
 14B0:007C idle  __OSVERSION
 14B0:007D idle  __OSMINOR
 14B0:007E       _ERRNO
 14B0:0080 idle  __EXCEPTION_LIST
 14B0:0082 idle  ___BRKLVL
 14B0:0084       __HEAPBASE
 14B0:0088       __BRKLVL
 14B0:008C       __HEAPTOP
 14B0:0090 idle  _POINTER_BIAS
 14B0:0094 idle  _TEVENTMAP
 14B0:0096 idle  _TRESOURCEMAP
 14B0:0098 idle  _TTHREADMAP
 14B0:009C idle  _TEVENTLISTMAP
 14B0:009E idle  _TSTREAMMAP
 14B0:00B6       _NTASKS
 14B0:00B8       _DNTASKS
 14B0:00BA idle  _STARTLS
 14B0:00BC       _RTXKTCB
 14B0:00C8 idle  _TASKNAME
 14B0:00D2       _NTMRS
 14B0:00D4 idle  _CLKTICK
 14B0:00D6       _CLKRATE
 14B0:00D8       _NMBOXES
 14B0:00DA idle  _MBOXNAME
 14B0:00EC       _NPARTS
 14B0:00EE       _DNPARTS
 14B0:00F0       _PKHEADER
 14B0:00F8 idle  _PARTNAME
 14B0:0102       _NQUEUES
 14B0:0104       _QKHEADER
 14B0:0114 idle  _QUEUENAME
 14B0:0126       _NRES
 14B0:0128 idle  _RESNAME
 14B0:0212       _NSEMAS
 14B0:0214       _SIGLISTSIZE
 14B0:0216 idle  _SEMANAME
 14B0:0422 idle  _RTXCTOS
 14B0:061E       _RTXCSTK
 14B0:0622 idle  _INIT_FLAGS
 14B0:0644       __ATEXITCNT
 14B0:0646       __EXITBUF
 14B0:064A idle  __EXITFOPEN
 14B0:064E idle  __EXITOPEN
 14B0:0652       __STREAMS
 14B0:07E2       __NFILE
 14B0:07E4       __OPENFD
 14B0:080C       __FPSTKLEN
 14B0:080E idle  __DOSERRNO
 14B0:0810 idle  __DOSERRORTOSV
 14B0:086A       ___XALLOC
 14B0:0870 idle  __NEW_HANDLER
 14B0:0882       __STKLEN
 14B0:0884       __CTYPE
 14B0:09EE idle  ___CPPEXCEPTIONLIST
 14B0:09F2 idle  ___EXCEPTFLAGS
 14B0:09F4 idle  ___SAVEDDS
 14B0:09F6 idle  ___SAVEDSI
 14B0:09F8 idle  ___TERMINATEPTR
 14B0:09FC idle  ___UNEXPECTDPTR
 14B0:0A00 idle  ___TERMINATE_DS
 14B0:0A02 idle  ___UNEXPECTD_DS
 14B0:0A04 idle  ___THROWFILENAME
 14B0:0A08 idle  ___THROWLINENUMBER
 14B0:0A0A idle  ___THROWEXCEPTIONNAME
 14B0:0A0E idle  ___EXCEPTSTATICBUFFP
 14B0:0A12 idle  ___EXCEPTMEMALLOCVARS
 14B0:0A16 idle  ___EXCEPTIONNAMEBUFF
 14B0:0A96 idle  ___EXCEPTSTATICXBUFF
 14B0:0B16       __8086
 14B0:0B42 idle  __SYS_ERRLIST
 14B0:0C02       __SYS_NERR
 14B0:0E5C idle  string::case_sensitive
 14B0:0E5E idle  string::paranoid_check
 14B0:0E60 idle  string::skip_white
 14B0:0E62 idle  string::initial_capac
 14B0:0E64 idle  string::resize_inc
 14B0:0E66 idle  string::freeboard
 14B0:0EC2       __REALCVTVECTOR
 14B0:0EC4 idle  __SCANTODVECTOR
 14B0:0EE2       _BRKFLAG
 14B0:0EE3 idle  _BRKTASK
 14B0:0EEA idle  _HEAPALLOC
 14B0:0EEE idle  _TEVENTPARTITION
 14B0:1EEE idle  _TRESOURCEPARTITION
 14B0:3AEE idle  _TTHREADPARTITION
 14B0:438E idle  _TEVENTLISTPARTITION
 14B0:45F0 idle  _TSTREAMPARTITION
 14B0:46E2       _INSTRUMENTCONTROL
 14B0:46E6 idle  _INTERPERTERTHREAD
 14B0:46EA idle  _INSTRUTIMER
 14B0:46F0       _RTXTCB
 14B0:4C18       _CLKQ
 14B0:4EF8       _MHEADER
 14B0:4F0C       _PHEADER
 14B0:515E       _QHEADER
 14B0:5236       _RHEADER
 14B0:5F6E       _SIGLIST
 14B0:5F8E       _SEMAT
 14B0:60F6 idle  _OLDISR
 14B0:60FA       _HIPRITSK
 14B0:60FC idle  _NSRTTCB
 14B0:60FE idle  _SEMAPUT
 14B0:6100 idle  _SEMAGET
 14B0:6102 idle  _DTCBFL
 14B0:6104 idle  _DPHFL
 14B0:6106 idle  _RTCTICK
 14B0:610A idle  _RTCTIME
 14B0:610E idle  _CLKQFL
 14B0:6112 idle  _CLKQPTR
 14B0:6116 idle  _SLICEUP
 14B0:611A       _ISRCNT
 14B0:6120       __ATEXITTBL
 14B0:61A0       ___SIGNALPTR
 14B0:61A4 idle  __DESTRUCTORCOUNTPTR
 1ACC:0020       __EMU

Program entry point at 0000:0000

