Linker command line:

-z -mPT5210.MAP -Nc -Elnk.err -pvectors=00h,text,stack=02000h \
  -prbit=0100h/020h,rdata/text,rbss/. -pdata=rbss/rdata,const,strings,bss/. \
  -pfarbss=010000h,fardata/strings -pnvram=bss,heap \
  -ACODE=00h-0FFFFh,010000h-01FFFFhx255 -pfarnvram=fardata -oC:.\L.OBJ \
  C:\HT-XA\LIB\RTxa--l.OBJ SYSTEM.OBJ SYNC.OBJ LOCK.OBJ FIEL.OBJ LINE.OBJ \
  SERI1.OBJ TABKORG.OBJ TABKORM.OBJ TABPOSG.OBJ TABPOSM.OBJ TABDIVI.OBJ \
  TABPYTM.OBJ TABPYTG.OBJ TABLETYP.OBJ TABPHASE.OBJ C:\HT-XA\LIB\xa--lF.LIB \
  C:\HT-XA\LIB\xa--lC.LIB 

Object code version is 3.5

Machine type is XA

		Name          Link     Load   Length Selector Space Scale
C:\HT-XA\LIB\RTxa--l.OBJ
		text           110      110      154       0     0
		vectors          0        0        4       0     0
SYSTEM.OBJ      ltext         439A     439A       24     3B8     0
SYNC.OBJ        bss             F0       F0        4      78     1
		rbit           100       20        C      20     1    8
		rbss            24       24       82      12     1
		text           264      264       20       0     0
		rdata           22      3B6        2     1DB     0
		vectors          0        0      110       0     0
		code          4334     4334       66     3B8     0
		ltext         390A     390A      53E     3B8     0
LOCK.OBJ        rbit           10C       22        2      20     1    8
		ltext          3B8      3B8      908     3B8     0
FIEL.OBJ        ltext         4298     4298       9C     3B8     0
LINE.OBJ        rbss            A6       A6        4      12     1
		code          3E48     3E48      276     3B8     0
		ltext          CC0      CC0      8DE     3B8     0
SERI1.OBJ       rbss            AA       AA       46      12     1
		ltext         331E     331E      5EC     3B8     0
TABKORG.OBJ     code          159E     159E      800     3B8     0
TABKORM.OBJ     code          1D9E     1D9E      800     3B8     0
TABPOSG.OBJ     code          259E     259E      6C0     3B8     0
TABPOSM.OBJ     code          2C5E     2C5E      6C0     3B8     0
TABDIVI.OBJ     bigtabs      40000    40000    10000   10000     0
TABPYTM.OBJ     bigtabs      30000    30000    10000   10000     0
TABPYTG.OBJ     bigtabs      20000    20000    10000   10000     0
TABLETYP.OBJ    code          41C0     41C0       D8     3B8     0
TABPHASE.OBJ    bigtabs      10000    10000    10000   10000     0

C:\HT-XA\LIB\xa--lF.LIB

C:\HT-XA\LIB\xa--lC.LIB
ctype_.obj      code          40BE     40BE      102     3B8     0
toupper.obj     ltext         43BE     43BE       12     3B8     0
ldiv.obj        text           284      284       FC       0     0
lmul.obj        text           380      380       1A       0     0
lcmp.obj        text           39A      39A       12       0     0
powerup.obj     text           3AC      3AC        4       0     0
indir1.obj      text           3B0      3B0        6       0     0

TOTAL		Name          Link     Load   Length
	CLASS	CODE     
		text           110      110      2A6
		vectors          0        0      110
		ltext         439A     439A       24
		code          4334     4334       66
		ltext         390A     390A      53E
		ltext          3B8      3B8      908
		ltext         4298     4298       9C
		code          3E48     3E48      276
		ltext          CC0      CC0      8DE
		ltext         331E     331E      5EC
		code          159E     159E      800
		code          1D9E     1D9E      800
		code          259E     259E      6C0
		code          2C5E     2C5E      6C0
		bigtabs      40000    40000    10000
		bigtabs      30000    30000    10000
		bigtabs      20000    20000    10000
		code          41C0     41C0       D8
		bigtabs      10000    10000    10000
		code          40BE     40BE      102
		ltext         43BE     43BE       12

	CLASS	DATA     
		bss             F0       F0        4
		rbss            24       24       CC
		rdata           22      3B6        2

	CLASS	BITSEG   
		rbit           100       20        E

	CLASS	FARDATA  



SEGMENTS	Name		Load	Length	 Top	Selector    Space Class

		vectors         000000	0003B6	0003B6	       0       0  CODE  
		rbit            000020	000002	000022	      20       1  BITSEG
		rbss            000024	0000CC	0000F0	      12       1  DATA  
		bss             0000F0	000004	0000F4	      78       1  DATA  
		rdata           0003B6	000002	0003B8	     1DB       0  DATA  
		ltext           0003B8	004018	0043D0	     3B8       0  CODE  
		bigtabs         010000	040000	050000	   10000       0  CODE  


UNUSED ADDRESS RANGES

	CODE             043D0-0FFFF
	                 50000-FFFFFF

                                  Symbol Table


CLASS	CODE     
	__Lvectors       vectors  00000
	__Hvectors       vectors  00110
	__Ltext          text     00110
	start            text     00160
	_exit            text     00210
	lldiv            text     002D4
	llmod            text     002E6
	aldiv            text     00322
	almod            text     00350
	almul            text     00380
	llmul            text     00380
	lcmp             text     0039A
	powerup          text     003AC
	indir_lr1        text     003B0
	__Htext          text     003B6
	_lock            ltext    003B8
	_burstfase       ltext    004F0
	_freqfase        ltext    00844
	_burstlock       ltext    009AC
	_hlock           ltext    00A80
	_intern          ltext    00BF2
	_hfasec          ltext    00C12
	_line_int        ltext    00CC0
	_line7           ltext    00FD8
	_palpuls         ltext    010F0
	_mode            ltext    0113A
	_sch             ltext    01216
	_hfasef          ltext    0143C
	_fasekorg        code     0159E
	_fasekorm        code     01D9E
	_faseposg        code     0259E
	_faseposm        code     02C5E
	_serial1_init    ltext    0331E
	_serial1_int     ltext    03336
	_put_char1       ltext    03352
	_serial_end      ltext    03376
	_get_char1       ltext    03428
	_pause1          ltext    03448
	_return_char     ltext    0345A
	_return_string   ltext    034B6
	_return_long     ltext    03512
	_return_int      ltext    03684
	_return_long_int ltext    0371A
	_NotFound        ltext    0390A
	_systatus        ltext    0390C
	_genlockmode     ltext    03920
	_hphsetg         ltext    039CA
	_hphsetm         ltext    039DC
	_hphautog        ltext    039EE
	_hphautom        ltext    03A24
	_hphupg          ltext    03A5A
	_hphupm          ltext    03A6A
	_gensetg         ltext    03A7A
	_gensetm         ltext    03A92
	_gensetd6        ltext    03AAA
	_gensetd5        ltext    03AC2
	_reset           ltext    03ADA
	_verreport       ltext    03AFA
	_dummy           ltext    03B0A
	_CommandExecute  ltext    03B0C
	_CharHandler     ltext    03BA4
	_kommun          ltext    03D02
	_main            ltext    03D18
	__ctype_         code     040BE
	_tablestart_g    code     041C0
	_tablestart_m    code     04230
	_v_int           ltext    04298
	_vtimer_int      ltext    04312
	_modetab         code     04334
	_kommandotabel   code     04340
	_syssetup        ltext    0439A
	_toupper         ltext    043BE
	_fase            bigtabs  10000
	_pytg            bigtabs  20000
	_pytm            bigtabs  30000
	_divi            bigtabs  40000

PSECT	(abs)    
	_doflags         (abs)    00020
	_outs            (abs)    00021
	_modebits        (abs)    00023
	_doline7         (abs)    00101
	_dosch           (abs)    00102
	_dolock          (abs)    00103
	_domode          (abs)    00104
	_docomm          (abs)    00105
	_nsf             (abs)    00106
	_syncav          (abs)    00108
	_lockbit         (abs)    00109
	_spgint          (abs)    0010A
	_buav            (abs)    0010B
	_pal             (abs)    0010C
	_slowlock        (abs)    0010D
	_secam           (abs)    0010E
	_tau             (abs)    0010F
	_genlocken       (abs)    00110
	_pplocken        (abs)    00111
	_g_sel           (abs)    00118
	_int10_sel       (abs)    00119
	_freq_sel        (abs)    0011A
	_a10m_sel        (abs)    0011B
	_d1_sel          (abs)    0011C
	_intern_sel      (abs)    0011D
	_bulock_sel      (abs)    0011E
	_ehporth         (abs)    00201
	_typeport        (abs)    02000
	_ehportl         (abs)    02001
	_dualport        (abs)    04000
	_outport         (abs)    04FFF
	_freql           (abs)    06000
	_freqh           (abs)    06080
	_freqload        (abs)    08000
	__S0             (abs)    50000

CLASS	DATA     
	__Lrdata         rdata    00022
	_dual            rdata    00022
	__Hrdata         rdata    00024
	__Lrbss          rbss     00024
	_buph            rbss     00024
	_eph             rbss     00026
	_genphase_d5     rbss     00028
	_genphase_d6     rbss     0002A
	_genphase_g      rbss     0002C
	_genphase_m      rbss     0002E
	_hpos            rbss     00030
	_htel            rbss     00032
	_i               rbss     00034
	_j               rbss     00036
	_oldph           rbss     00038
	_outf            rbss     0003A
	_phdet           rbss     0003C
	_subcpot         rbss     0003E
	_subcref         rbss     00040
	_x               rbss     00042
	_y               rbss     00044
	_z               rbss     00046
	_Number          rbss     00048
	_fasekor         rbss     0004C
	_fasepos         rbss     00050
	_hinput          rbss     00054
	_hphzero_g       rbss     00058
	_hphzero_m       rbss     0005C
	_href            rbss     00060
	_phdiff          rbss     00064
	_scratc          rbss     00068
	_tableam         rbss     0006C
	_tableph         rbss     00070
	_tablepyt        rbss     00074
	_atel            rbss     00078
	_black           rbss     00079
	_blackav         rbss     0007A
	_btel            rbss     0007B
	_buam            rbss     0007C
	_buamav          rbss     0007D
	_cc              rbss     0007E
	_cvartel         rbss     0007F
	_diff            rbss     00080
	_dpoint          rbss     00081
	_errpre          rbss     00082
	_ftel            rbss     00083
	_genmode         rbss     00084
	_godgren         rbss     00085
	_header1         rbss     00086
	_levelcnt        rbss     00087
	_linadd          rbss     00088
	_lintyp          rbss     00089
	_myaddress       rbss     0008A
	_oldpalm         rbss     0008B
	_oldread         rbss     0008C
	_oven            rbss     0008D
	_palav           rbss     0008E
	_palm            rbss     0008F
	_papua           rbss     00090
	_papulock        rbss     00091
	_phgod           rbss     00092
	_savacc          rbss     00093
	_schgod          rbss     00094
	_schph           rbss     00095
	_secamav         rbss     00096
	_sersave         rbss     00097
	_speeddel        rbss     00098
	_speedval        rbss     00099
	_sphgod          rbss     0009A
	_sync            rbss     0009B
	_trig            rbss     0009C
	_verr            rbss     0009D
	_combuf          rbss     0009E
	_tableptr        rbss     000A6
	_RxBuf1          rbss     000AA
	_cksum           rbss     000EC
	_rcksum          rbss     000ED
	_rstate          rbss     000EF
	__Hconst         const    000F0
	__Hdata          data     000F0
	__Hrbss          rbss     000F0
	__Hstrings       strings  000F0
	__Lbss           bss      000F0
	__Lconst         const    000F0
	__Ldata          data     000F0
	__Lstrings       strings  000F0
	__Hbss           bss      000F4
	__Hnvram         nvram    000F4
	__Lnvram         nvram    000F4
	__Brdata         rdata    003B6
	__Bconst         const    003B8
	__Bdata          data     003B8
	__Bstrings       strings  003B8

PSECT	code     
	__Bcode          code     003B8
	__Hcode          code     10000
	__Lcode          code     10000

PSECT	heap     
	__Hheap          heap     000F4
	__Lheap          heap     000F4

CLASS	BITSEG   
	__Brbit          rbit     00020
	__Lrbit          rbit     00100
	_alian           rbit     00100
	_bulocken        rbit     00101
	_cntenab         rbit     00102
	_epapu           rbit     00103
	_komready        rbit     00104
	_level           rbit     00105
	_lockdet         rbit     00106
	_minus           rbit     00107
	_quit            rbit     00108
	_req             rbit     00109
	_std             rbit     0010A
	_window          rbit     0010B
	__Hrbit          rbit     0010E

CLASS	FARDATA  
	__Bfardata       fardata  003B8
	__Bfarnvram      farnvram 003B8
	__Hfarbss        farbss   10000
	__Hfardata       fardata  10000
	__Hfarnvram      farnvram 10000
	__Lfarbss        farbss   10000
	__Lfardata       fardata  10000
	__Lfarnvram      farnvram 10000

PSECT	stack    
	__Hstack         stack    02000
	__Lstack         stack    02000

PSECT	ltext    
	__Bltext         ltext    003B8
	__Hltext         ltext    10000
	__Lltext         ltext    10000

PSECT	bigtabs  
	__Bbigtabs       bigtabs  003B8
	__Hbigtabs       bigtabs  10000
	__Lbigtabs       bigtabs  10000
