Linker command line:

-z -h+C:\WORK\5210\BBURST\vertest\BBUTEST.SYM -mBBUTEST.MAP \
  -pvectors=00h/00h,text,stack=0200h -prbit=0100h/020h,rdata/text,rbss/. \
  -pdata=rbss/rdata,const,strings,bss/. -ga/10000h -pnvram=bss -pheap=nvram \
  -AFARDATA=00h-0FFFFh/010000h,0-0FFFFh/020000hx254 -pfarnvram=FARDATA \
  -pfarbss=FARDATA,fardata=FARDATA -ACODE=00h-0FFFFh,0-0FFFFh/010000hx255 \
  -oC:\TMP\L.OBJ C:\XA\LIB\RTxa--L.OBJ BBU.OBJ SYSTEM.OBJ SERI1.OBJ \
  INIIC.OBJ BB_MTEST.OBJ BB_PALG.OBJ FASEPALG.OBJ FASENTSC.OBJ \
  C:\XA\LIB\xa--LC.LIB 

Object code version is 3.5

Machine type is XA

		Name         Link     Load   Length Selector Space Scale
C:\XA\LIB\RTxa--L.OBJ
		text          104      104       EA       0     0
		vectors         0        0        4       0     0
BBU.OBJ         bss            EE       EE       10       0     1
		data           E6      31E        8       0     0
		rbit          100       20       10       0     1    8
		rbss           24       24       7A       0     1
		text          1EE      1EE       10       0     0
		vectors         0        0      104       0     0
		code         4CEA     4CEA       C0       0     0
		ltext        16AE     16AE     1138       0     0
SYSTEM.OBJ      ltext        4DAA     4DAA       24       0     0
SERI1.OBJ       rbss           9E       9E       46       0     1
		ltext        4216     4216      5B8       0     0
INIIC.OBJ       rbit          110       22        2       0     1    8
		rbss           E4       E4        2       0     1
		ltext        31AA     31AA      838       0     0
BB_MTEST.OBJ    code         47CE     47CE      41A       0     0
BB_PALG.OBJ     code         27E6     27E6      9C4       0     0
FASEPALG.OBJ    code          326      326     1388       0     0
FASENTSC.OBJ    code         39E2     39E2      834       0     0

C:\XA\LIB\xa--LC.LIB
ctype_.obj      code         4BE8     4BE8      102       0     0
toupper.obj     ltext        4DCE     4DCE       12       0     0
ldiv.obj        text          1FE      1FE       FC       0     0
lmul.obj        text          2FA      2FA       1A       0     0
powerup.obj     text          314      314        4       0     0
indir1.obj      text          318      318        6       0     0

TOTAL		Name         Link     Load   Length
	CLASS	FARDATA 

	CLASS	CODE    
		text          104      104      21A
		vectors         0        0      104
		code         4CEA     4CEA       C0
		ltext        16AE     16AE     1138
		ltext        4DAA     4DAA       24
		ltext        4216     4216      5B8
		ltext        31AA     31AA      838
		code         47CE     47CE      41A
		code         27E6     27E6      9C4
		code          326      326     1388
		code         39E2     39E2      834
		code         4BE8     4BE8      102
		ltext        4DCE     4DCE       12

	CLASS	DATA    
		bss            EE       EE       10
		data           E6      31E        8
		rbss           24       24       C2

	CLASS	BITSEG  
		rbit          100       20       12



SEGMENTS	Name		Load	Length	 Top	Selector    Space Class

		vectors         000000	00031E	00031E	       0       0  CODE
		rbit            000020	000003	000023	       0       1  BITSEG
		rbss            000024	0000C2	0000E6	       0       1  DATA
		bss             0000EE	000010	0000FE	       0       1  DATA
		data            00031E	004AC2	004DE0	       0       0  DATA


UNUSED ADDRESS RANGES

	CODE             04DE0-FFFFFF
	FARDATA          10000-FFFFFF

                                  Symbol Table

_Acknowledge     rbit     00100  _ByteTx2         ltext    031AA
_CharHandler     ltext    02502  _CommandExecute  ltext    0247E
_NotFound        ltext    016AE  _Number          rbss     00052
_Number1         rbss     00024  _Rd_iic          ltext    0325A
_Rd_iic_int      ltext    01EA2  _Rd_iic_long     ltext    01E5A
_RxBuf1          rbss     0009E  _Wr_iic          ltext    033AC
_Wr_iic2         ltext    03454  __Bcode          code     10000
__Bconst         const    00326  __Bdata          data     0031E
__Bfarbss        farbss   10000  __Bfardata       fardata  10000
__Bfarnvram      farnvram 10000  __Bltext         ltext    10000
__Brbit          rbit     00020  __Brdata         rdata    0031E
__Bstrings       strings  00326  __Hbss           bss      000FE
__Hcode          code     00000  __Hconst         const    000EE
__Hdata          data     000EE  __Hfarbss        farbss   00000
__Hfardata       fardata  00000  __Hfarnvram      farnvram 00000
__Hheap          heap     000FE  __Hltext         ltext    00000
__Hnvram         nvram    000FE  __Hrbit          rbit     00112
__Hrbss          rbss     000E6  __Hrdata         rdata    00024
__Hstack         stack    00200  __Hstrings       strings  000EE
__Htext          text     0031E  __Hvectors       vectors  00104
__Lbss           bss      000EE  __Lcode          code     00000
__Lconst         const    000EE  __Ldata          data     000E6
__Lfarbss        farbss   00000  __Lfardata       fardata  00000
__Lfarnvram      farnvram 00000  __Lheap          heap     000FE
__Lltext         ltext    00000  __Lnvram         nvram    000FE
__Lrbit          rbit     00100  __Lrbss          rbss     00024
__Lrdata         rdata    00024  __Lstack         stack    00200
__Lstrings       strings  000EE  __Ltext          text     00104
__Lvectors       vectors  00000  __S0             (abs)    10000
__S1             (abs)    10000  __ctype_         code     04BE8
_buhiport1       (abs)    03000  _buhiport2       (abs)    0B000
_bulowport1      (abs)    02000  _bulowport2      (abs)    0A000
_cc              rbss     00096  _cksum           rbss     000E0
_daclev1         ltext    0205E  _daclev2         ltext    020EE
_dacoffset1      ltext    020A6  _dacoffset2      ltext    02136
_dalev1          rbss     00097  _dalev2          rbss     00098
_daoff1          rbss     00099  _daoff2          rbss     0009A
_dummy           ltext    01920  _errstatus       rbss     0009B
_exit            text     001CE  _ext0_int        ltext    016B0
_ext1_int        ltext    017E8  _get_char1       ltext    04324
_global1         ltext    01D0A  _global2         ltext    01D74
_hcalg1          rbss     00056  _hcalg2          rbss     0005A
_hcalm1          rbss     0005E  _hcalm2          rbss     00062
_header1         rbss     0009C  _hf1buf          rbss     00066
_hf2buf          rbss     0006A  _hfase1          rbss     0006E
_hfase2          rbss     00072  _hfasecport1     (abs)    01000
_hfasecport2     (abs)    09000  _hfasefport1     (abs)    04000
_hfasefport2     (abs)    0C000  _instr_index     bss      000F1
_instring        bss      000F2  _kommandotabel   code     04CEA
_kommun          ltext    02768  _lastphase1      rbss     00076
_lastphase2      rbss     0007A  _lincnt1         rbss     00026
_lincnt2         rbss     00028  _load1g          ltext    01BB6
_load1g7         ltext    01BEE  _load1m          ltext    01C26
_load1ms         ltext    01C5E  _load2g          ltext    01BD2
_load2g7         ltext    01C0A  _load2m          ltext    01C42
_load2ms         ltext    01CA6  _loaded1         rbit     00101
_loaded2         rbit     00102  _main            ltext    0277E
_myaddress       rbss     0009D  _offsetg1        rbss     0007E
_offsetg2        rbss     00082  _offsetm1        rbss     00086
_offsetm2        rbss     0008A  _opstart         ltext    021EA
_pause1          ltext    04344  _phases1         ltext    01922
_phases2         ltext    01A58  _poff1           rbit     00103
_poff1buf        rbit     00104  _poff2           rbit     00105
_poff2buf        rbit     00106  _put_char1       ltext    0424A
_quit            rbit     00107  _rcksum          rbss     000E1
_rdphase1        ltext    01C7A  _rdphase2        ltext    01C90
_rdsyst1         ltext    01CC2  _rdsyst2         ltext    01CE6
_rdtext          ltext    02198  _readstat        ltext    0246E
_req             rbit     00108  _reset1          ltext    0234E
_reset2          ltext    023DE  _return_char     ltext    04350
_return_int      ltext    0455C  _return_long     ltext    043F2
_return_long_int ltext    045EC  _return_string   ltext    043A2
_rstate          rbss     000E3  _save            rbit     00109
_sch1            rbss     0002A  _sch1buf         rbss     0002C
_sch2            rbss     0002E  _sch2buf         rbss     00030
_schcalg1        rbss     00032  _schcalg2        rbss     00034
_schcalm1        rbss     00036  _schcalm2        rbss     00038
_scload1         ltext    01DDE  _scload2         ltext    01E1C
_serial1_init    ltext    04216  _serial1_int     ltext    0422E
_serial_end      ltext    04260  _setadr          ltext    01B8E
_sf1buf          rbss     0003A  _sf2buf          rbss     0003C
_sfaseg          code     00326  _sfasem          code     039E2
_std             rbit     0010A  _store_byte      ltext    0351A
_store_phases    ltext    035CE  _store_string    ltext    0378A
_subcoffs1       rbss     0003E  _subcoffs2       rbss     00040
_subfa1          rbss     00042  _subfa2          rbss     00044
_sys1buf         rbit     0010B  _sys2buf         rbit     0010C
_syssetup        ltext    04DAA  _syst1           rbit     0010D
_syst2           rbit     0010E  _tablephg        data     000E6
_tablephm        data     000EA  _tmp             rbss     0008E
_toupper         ltext    04DCE  _trimphag1       ltext    01EC6
_trimphag2       ltext    01F2A  _trimpham1       ltext    01F8E
_trimpham2       ltext    01FF8  _ts              rbss     00092
_typeg           code     027E6  _typem           code     047CE
_typeport1       (abs)    00FFF  _typeport2       (abs)    08000
_vbuf1           rbss     00046  _vbuf2           rbss     00048
_verreport       ltext    021DA  _vfase1          rbss     0004A
_vfase1old       rbss     0004C  _vfase2          rbss     0004E
_vfase2old       rbss     00050  _waitms          ltext    03502
_wrtext          ltext    0217E  aldiv            text     0029C
almod            text     002CA  almul            text     002FA
indir_lr1        text     00318  lldiv            text     0024E
llmod            text     00260  llmul            text     002FA
powerup          text     00314  start            text     00154
