Linker command line:

-W20 -z \
  -h+PT8603.SYM \
  -mPT8603.MAP \
  -pvectors=00h,text,stack=0200h \
  -prbit=0100h/020h,rdata/text,rbss/. \
  -pdata=rbss/rdata,const,strings,bss/. \
  -pfarbss=010000h,fardata/strings \
  -ga/10000h \
  -pnvram=bss \
  -pheap=nvram \
  -ACODE=00h-0FFFFh,010000h-01FFFFh \
  -pfarnvram=fardata \
  -oC:\WINDOWS\TEMP\L.OBJ \
  C:\HT-XA\LIB\RTxa--l.OBJ \
  D1GENER.OBJ \
  D1PATTG.OBJ \
  D1PATTM.OBJ \
  D1CMD.OBJ \
  D1TABLES.OBJ \
  D1UTIL.OBJ \
  COMM.OBJ \
  RS232.OBJ \
  C:\HT-XA\LIB\xa--lC.LIB 

Object code version is 3.5

Machine type is XA

		Name         Link     Load   Length Selector Space Scale
C:\HT-XA\LIB\RTxa--l.OBJ
		text           A8       A8      154       0     0
		vectors         0        0        4       0     0
D1GENER.OBJ     bss            80       80        2       0     1
		rbit          100       20        6       0     1    8
		rbss           24       24       2E       0     1
		text          1FC      1FC       10       0     0
		rdata          22      32C        2       0     0
		vectors         0        0       A8       0     0
		ltext        285C     285C      52E       0     0
D1PATTG.OBJ     code          35A      35A      9A8       0     0
D1PATTM.OBJ     code          D02      D02      8E8       0     0
D1CMD.OBJ       strings        74      34E        C       0     0
		ltext        1C42     1C42      628       0     0
D1TABLES.OBJ    data           54      32E       20       0     0
		code         30D2     30D2      112       0     0
D1UTIL.OBJ      rbit          106       21        2       0     1    8
		ltext        2D8A     2D8A      348       0     0
COMM.OBJ        rbit          108       21        2       0     1    8
		rbss           52       52        2       0     1
		ltext        15EA     15EA      658       0     0
RS232.OBJ       bss            82       82       70       0     1
		rbit          10A       22        4       0     1    8
		code         31E4     31E4       FE       0     0
		ltext        226A     226A      5F2       0     0

C:\HT-XA\LIB\xa--lC.LIB
strcpy.obj      ltext        32E2     32E2        E       0     0
ldiv.obj        text          20C      20C       FC       0     0
lmul.obj        text          308      308       1A       0     0
powerup.obj     text          322      322        4       0     0
indir1.obj      text          326      326        6       0     0

TOTAL		Name         Link     Load   Length
	CLASS	CODE    
		text           A8       A8      284
		vectors         0        0       A8
		ltext        285C     285C      52E
		code          35A      35A      9A8
		code          D02      D02      8E8
		ltext        1C42     1C42      628
		code         30D2     30D2      112
		ltext        2D8A     2D8A      348
		ltext        15EA     15EA      658
		code         31E4     31E4       FE
		ltext        226A     226A      5F2
		ltext        32E2     32E2        E

	CLASS	DATA    
		bss            80       80       72
		data           54      32E       20
		rbss           24       24       30
		rdata          22      32C        2
		strings        74      34E        C

	CLASS	BITSEG  
		rbit          100       20        E

	CLASS	FARDATA 



SEGMENTS	Name		Load	Length	 Top	Selector    Space Class

		vectors         000000	00032C	00032C	       0       0  CODE
		rbit            000020	000002	000022	       0       1  BITSEG
		rbss            000024	000030	000054	       0       1  DATA
		bss             000080	000072	0000F2	       0       1  DATA
		rdata           00032C	000002	00032E	       0       0  DATA
		data            00032E	002FC2	0032F0	       0       0  DATA


UNUSED ADDRESS RANGES

	CODE             032F0-1FFFF

    Symbol Table

_AudioLevel                  rbss     00040
_AudioSignal                 rbss     00041
_Audio_Level_Command         ltext    01E42
_Audio_Signal_Command        ltext    01DF8
_BufState                    bss      00090
_ByteTxb                     ltext    015EA
_CalOffset                   rbss     00030
_Calculate_Offset            ltext    021A0
_Char                        bss      00091
_CharHandler                 ltext    023D0
_CharType                    bss      00092
_Cmd                         bss      0009E
_CmdDelimiter                bss      00093
_CmdNdx                      bss      00094
_Command_Execute             ltext    0269C
_Command_Table               code     03264
_Copy_SoundRAM               ltext    02E2E
_Copy_TextRAM                ltext    02D8A
_EDHInsertion                rbit     00100
_EDH_Command                 ltext    01DAC
_ErrorStatus                 rbss     00042
_FieldIntr                   ltext    02C04
_FrameCnt                    rbss     00043
_G_Black                     code     0063A
_G_CBar100                   code     004C2
_G_CBar75Grey                code     004F2
_G_CBar75Red                 code     00532
_G_Check                     code     00572
_G_CrossHatch                code     0084A
_G_Customized1               code     00B7A
_G_Customized2               code     00BAA
_G_Customized3               code     00BDA
_G_Customized4               code     00C0A
_G_Customized5               code     00C3A
_G_Customized6               code     00C6A
_G_Customized7               code     00C9A
_G_Customized8               code     00CCA
_G_DigTimTest                code     005EA
_G_Dummy                     code     00CFA
_G_EBUCBar                   code     00462
_G_EBUCBar8bit               code     00492
_G_MultiBurst                code     00ABA
_G_Offset_Command            ltext    01C58
_G_PLUGE                     code     00A3A
_G_PatternTable              code     0035A
_G_Phase_Command             ltext    01F1A
_G_Red75                     code     00AEA
_G_ShallowRamp               code     005BA
_G_Stair10                   code     00B4A
_G_Stair5                    code     00B1A
_G_Window100                 code     007AA
_G_Window15                  code     0066A
_G_Window20                  code     0070A
_GeneratorRunning            rbit     00101
_GenlockOffset               rbss     00034
_Genlock_Offset_Command      ltext    01D38
_HighClickSoundRAM           (abs)    0C200
_HighSoundRAM                (abs)    08200
_IICErrorCode                rbss     00052
_IIC_RdOffset                ltext    01BD2
_IIC_RdStr                   ltext    01A46
_IIC_Read                    ltext    01650
_IIC_WrOffset                ltext    01AB0
_IIC_WrStr                   ltext    018A4
_IIC_Write                   ltext    01748
_IIC_Write2                  ltext    017F0
_LineCnt                     rbss     00024
_LineIntr                    ltext    0285C
_LineOffset                  rbss     00026
_LinePortH                   (abs)    0A800
_LinePortL                   (abs)    0A000
_LowClickSoundRAM            (abs)    04200
_LowSoundRAM                 (abs)    00200
_M_Black                     code     00F22
_M_Check                     code     00E5A
_M_CrossHatch                code     01132
_M_Customized1               code     01462
_M_Customized2               code     01492
_M_Customized3               code     014C2
_M_Customized4               code     014F2
_M_Customized5               code     01522
_M_Customized6               code     01552
_M_Customized7               code     01582
_M_Customized8               code     015B2
_M_DigTimTest                code     00ED2
_M_Dummy                     code     015E2
_M_MultiBurst                code     013A2
_M_Offset_Command            ltext    01CA4
_M_PLUGE                     code     01322
_M_PatternTable              code     00D02
_M_Phase_Command             ltext    01F92
_M_Red75                     code     013D2
_M_SMPTECBar                 code     00E0A
_M_ShallowRamp               code     00EA2
_M_Stair10                   code     01432
_M_Stair5                    code     01402
_M_Window100                 code     01092
_M_Window15                  code     00F52
_M_Window20                  code     00FF2
_OSDText                     rbss     00049
_OffsetPortH                 (abs)    09000
_OffsetPortL                 (abs)    08800
_PageSelect                  (abs)    0038C
_ParamNdx                    bss      00095
_Parameter                   bss      00082
_PatternNo                   rbss     00044
_Pattern_Command             ltext    01D74
_PhaseOffset                 rbss     00028
_RS232Init                   ltext    0239A
_RS232Intr                   ltext    0226A
_Read_HW_Information_Command ltext    0217E
_Read_HW_Version_Command     ltext    0215A
_Read_Offset_Command         ltext    01D16
_Read_SW_Version_Command     ltext    0212E
_Read_Status_Command         ltext    01EF0
_Read_System_Command         ltext    01CF0
_Read_User_Text_Command      ltext    020E0
_Reset_Command               ltext    0200A
_RxBuffer                    bss      000B2
_RxChkSum                    bss      00096
_RxInput                     bss      00097
_RxInputSize                 bss      00098
_RxOutput                    bss      00099
_RxState                     bss      0009A
_Sound525                    code     030F2
_Sound625                    code     03122
_SoundCnt                    rbss     00045
_SoundEnable                 rbit     00102
_SoundFrameCnt               rbss     00046
_SoundOffsetTable            code     030D2
_SoundPage0                  (abs)    0CA00
_SoundPage1                  (abs)    10000
_SoundPage2                  (abs)    20000
_SoundPage3                  (abs)    30000
_SoundPage4                  (abs)    40000
_SoundPage5                  (abs)    50000
_SoundPage6                  (abs)    60000
_SoundPage7                  (abs)    70000
_SoundPageTable              data     00054
_SoundPtr                    rbss     0002A
_SoundPtrMax                 rbss     0002C
_Status                      rbss     00047
_StatusPort                  (abs)    08000
_StrNdx                      bss      0009B
_String                      bss      000A2
_TVSystem                    rbit     00103
_TestInputBuffer             ltext    0277E
_TextCnt                     rbss     0002E
_TextEnable                  rbit     00104
_TextMovementDir             bss      00080
_TextPort                    (abs)    0B000
_TextStatus                  rbss     00048
_TextStatusPort              (abs)    0C000
_TextTable                   code     03163
_Text_Command                ltext    01EBC
_Text_ON_Command             ltext    01E7C
_TxChkSum                    bss      0009C
_Tx_ACK_Buffer               bss      0009D
_TypeTable                   code     031E4
_Unit_Address_Command        ltext    01C42
_UserOffset                  rbss     00038
_Wait10ms                    ltext    030B6
_WriteChar                   ltext    0279E
_WriteEndOfTx                ltext    027B6
_WriteString                 ltext    027CC
_WriteValue                  ltext    027F2
_Write_User_Text_Command     ltext    020A2
__Bcode                      code     0035A
__Bconst                     const    0034E
__Bdata                      data     0032E
__Bfardata                   fardata  0035A
__Bfarnvram                  farnvram 0035A
__Bltext                     ltext    0035A
__Brbit                      rbit     00020
__Brdata                     rdata    0032C
__Bstrings                   strings  0034E
__Hbss                       bss      000F2
__Hcode                      code     10000
__Hconst                     const    00074
__Hdata                      data     00074
__Hfarbss                    farbss   10000
__Hfardata                   fardata  10000
__Hfarnvram                  farnvram 10000
__Hheap                      heap     000F2
__Hltext                     ltext    10000
__Hnvram                     nvram    000F2
__Hrbit                      rbit     0010E
__Hrbss                      rbss     00054
__Hrdata                     rdata    00024
__Hstack                     stack    00200
__Hstrings                   strings  00080
__Htext                      text     0032C
__Hvectors                   vectors  000A8
__Lbss                       bss      00080
__Lcode                      code     10000
__Lconst                     const    00074
__Ldata                      data     00054
__Lfarbss                    farbss   10000
__Lfardata                   fardata  10000
__Lfarnvram                  farnvram 10000
__Lheap                      heap     000F2
__Lltext                     ltext    10000
__Lnvram                     nvram    000F2
__Lrbit                      rbit     00100
__Lrbss                      rbss     00024
__Lrdata                     rdata    00022
__Lstack                     stack    00200
__Lstrings                   strings  00074
__Ltext                      text     000A8
__Lvectors                   vectors  00000
__S0                         (abs)    032F0
_exit                        text     001A8
_first_line_w_text           rdata    00022
_line_has_text               rbit     00105
_main                        ltext    02C0E
_ptr                         rbss     0003C
_strcpy                      ltext    032E2
aldiv                        text     002AA
almod                        text     002D8
almul                        text     00308
indir_lr1                    text     00326
lldiv                        text     0025C
llmod                        text     0026E
llmul                        text     00308
powerup                      text     00322
start                        text     000F8
