BL51 BANKED LINKER/LOCATER V5.03              03/28/2007  10:22:00  PAGE 1


BL51 BANKED LINKER/LOCATER V5.03, INVOKED BY:
C:\SILABS\MCU\IDEFILES\C51\BIN\BL51.EXE F:\PT8619\SOURCE-CODE\BS_TEST\MAIN.OBJ
>>  TO F:\PT8619\SOURCE-CODE\BS_TEST\MAIN RS (256) PL (68) PW (78)


MEMORY MODEL: SMALL


INPUT MODULES INCLUDED:
  F:\PT8619\SOURCE-CODE\BS_TEST\MAIN.OBJ (MAIN)
  C:\SILABS\MCU\IDEFILES\C51\LIB\C51S.LIB (?C_STARTUP)
  C:\SILABS\MCU\IDEFILES\C51\LIB\C51S.LIB (?C_INIT)


LINK MAP OF MODULE:  F:\PT8619\SOURCE-CODE\BS_TEST\MAIN (MAIN)


            TYPE    BASE      LENGTH    RELOCATION   SEGMENT NAME
            -----------------------------------------------------

            * * * * * * *   D A T A   M E M O R Y   * * * * * * *
            REG     0000H     0008H     ABSOLUTE     "REG BANK 0"
            DATA    0008H     0008H     UNIT         ?DT?MAIN
            IDATA   0010H     0001H     UNIT         ?STACK

            * * * * * * *   C O D E   M E M O R Y   * * * * * * *
            CODE    0000H     0003H     ABSOLUTE     
                    0003H     0018H                  *** GAP ***
            CODE    001BH     0003H     ABSOLUTE     
            CODE    001EH     00B0H     UNIT         ?PR?MAIN?MAIN
            CODE    00CEH     008CH     UNIT         ?C_C51STARTUP
            CODE    015AH     0051H     UNIT         ?PR?TIMER_0?MAIN
            CODE    01ABH     002AH     UNIT         ?PR?_VARDELAY?MAIN
            CODE    01D5H     0019H     UNIT         ?C_INITSEG



OVERLAY MAP OF MODULE:   F:\PT8619\SOURCE-CODE\BS_TEST\MAIN (MAIN)


SEGMENT
  +--> CALLED SEGMENT
---------------------
?C_C51STARTUP
  +--> ?PR?MAIN?MAIN
  +--> ?C_INITSEG

?PR?MAIN?MAIN
  +--> ?PR?_VARDELAY?MAIN



SYMBOL TABLE OF MODULE:  F:\PT8619\SOURCE-CODE\BS_TEST\MAIN (MAIN)

  VALUE           TYPE          NAME
  ----------------------------------

  -------         MODULE        MAIN
  C:0000H         SYMBOL        _ICE_DUMMY_
  D:0080H         PUBLIC        P0
  D:0090H         PUBLIC        P1
  D:00A0H         PUBLIC        P2
  B:00A8H.7       PUBLIC        EA
  D:0008H         PUBLIC        on_air_line
  B:00A0H.0       PUBLIC        fault1_LED
  B:00A0H.1       PUBLIC        fault2_LED
BL51 BANKED LINKER/LOCATER V5.03            03/28/2007  10:22:00  PAGE 2


  D:00A4H         PUBLIC        P0MDOUT
  D:00A5H         PUBLIC        P1MDOUT
  D:00A8H         PUBLIC        IE
  D:00A6H         PUBLIC        P2MDOUT
  B:0080H.7       PUBLIC        remote_en_sw
  B:0090H.6       PUBLIC        sync1_sel
  D:00D9H         PUBLIC        PCA0MD
  B:0090H.7       PUBLIC        sync2_sel
  B:00A0H.4       PUBLIC        onair_1_2_LED_sel
  D:00E1H         PUBLIC        XBR0
  D:00E2H         PUBLIC        XBR1
  C:001EH         PUBLIC        main
  B:00A0H.7       PUBLIC        manual_sel
  D:00F2H         PUBLIC        P1MDIN
  B:0080H.3       PUBLIC        auto_sel_sw
  D:0009H         PUBLIC        manual_sel_line
  C:015AH         PUBLIC        timer_0
  D:0089H         PUBLIC        TMOD
  D:0088H         PUBLIC        TCON
  B:00A0H.3       PUBLIC        man_auto_LED_sel
  D:00D4H         PUBLIC        P0SKIP
  D:00D5H         PUBLIC        P1SKIP
  D:00D6H         PUBLIC        P2SKIP
  B:0080H.5       PUBLIC        sync1_sw
  C:01AFH         PUBLIC        _vardelay
  B:0080H.6       PUBLIC        sync2_sw
  B:00A0H.2       PUBLIC        sync_1_2_LED_sel
  D:00A9H         PUBLIC        CLKSEL
  D:00B2H         PUBLIC        OSCICN
  D:008DH         PUBLIC        TH1
  D:000AH         PUBLIC        remote_en_line
  B:0080H.0       PUBLIC        fault1
  D:00B1H         PUBLIC        OSCXCN
  B:0080H.1       PUBLIC        fault2
  D:008BH         PUBLIC        TL1
  B:0088H.6       PUBLIC        TR1
  D:000BH         PUBLIC        fault1_line
  D:000CH         PUBLIC        fault2_line
  B:00A0H.6       PUBLIC        auto_sel
  B:00A0H.5       PUBLIC        remote_en_sel
  D:000DH         PUBLIC        auto_sel_line
  D:008EH         PUBLIC        CKCON
  B:0080H.4       PUBLIC        manual_sel_sw
  B:0090H.0       PUBLIC        rel_sense1
  B:0090H.1       PUBLIC        rel_sense2
  B:0090H.2       PUBLIC        ext_remote_LED
  D:000EH         PUBLIC        sync1_line
  B:0080H.2       PUBLIC        on_air
  D:000FH         PUBLIC        sync2_line
  -------         PROC          TIMER_0
  C:015AH         LINE#         47
  C:015EH         LINE#         50
  C:0164H         LINE#         51
  C:016AH         LINE#         53
  C:0170H         LINE#         54
  C:0176H         LINE#         56
  C:017CH         LINE#         57
  C:0182H         LINE#         59
  C:0188H         LINE#         60
  C:018EH         LINE#         62
  C:0194H         LINE#         63
  C:019AH         LINE#         71
  C:01A0H         LINE#         72
  C:01A6H         LINE#         73
  -------         ENDPROC       TIMER_0
BL51 BANKED LINKER/LOCATER V5.03            03/28/2007  10:22:00  PAGE 3


  C:01ABH         SYMBOL        L?0024
  -------         PROC          L?0023
  -------         ENDPROC       L?0023
  C:01ABH         SYMBOL        L?0024
  -------         PROC          _VARDELAY
  D:0006H         SYMBOL        time
  -------         DO            
  D:0004H         SYMBOL        i
  D:0002H         SYMBOL        j
  -------         ENDDO         
  C:01AFH         LINE#         75
  C:01AFH         LINE#         76
  C:01AFH         LINE#         79
  C:01BFH         LINE#         80
  C:01BFH         LINE#         81
  C:01C2H         LINE#         82
  C:01C2H         LINE#         83
  C:01C2H         LINE#         84
  C:01CDH         LINE#         85
  C:01D4H         LINE#         86
  -------         ENDPROC       _VARDELAY
  -------         PROC          MAIN
  C:001EH         LINE#         88
  C:001EH         LINE#         89
  C:001EH         LINE#         90
  C:0021H         LINE#         91
  C:0024H         LINE#         92
  C:0026H         LINE#         93
  C:0029H         LINE#         95
  C:002CH         LINE#         96
  C:002EH         LINE#         97
  C:0030H         LINE#         98
  C:0033H         LINE#         99
  C:0036H         LINE#         100
  C:0038H         LINE#         102
  C:003AH         LINE#         103
  C:003DH         LINE#         105
  C:0040H         LINE#         106
  C:0043H         LINE#         107
  C:0046H         LINE#         110
  C:0049H         LINE#         112
  C:004BH         LINE#         113
  C:004EH         LINE#         114
  C:0051H         LINE#         116
  C:0054H         LINE#         117
  C:0056H         LINE#         119
  C:0058H         LINE#         121
  C:005AH         LINE#         123
  C:005AH         LINE#         124
  C:005AH         LINE#         126
  C:0064H         LINE#         127
  C:006EH         LINE#         128
  C:0078H         LINE#         129
  C:0082H         LINE#         131
  C:0088H         LINE#         133
  C:008DH         LINE#         134
  C:008DH         LINE#         135
  C:0090H         LINE#         136
  C:0092H         LINE#         137
  C:0092H         LINE#         139
  C:0097H         LINE#         140
  C:0097H         LINE#         141
  C:0099H         LINE#         142
  C:009CH         LINE#         143
  C:009CH         LINE#         145
BL51 BANKED LINKER/LOCATER V5.03            03/28/2007  10:22:00  PAGE 4


  C:00A1H         LINE#         146
  C:00A1H         LINE#         147
  C:00A3H         LINE#         148
  C:00A6H         LINE#         149
  C:00A6H         LINE#         151
  C:00ABH         LINE#         152
  C:00ABH         LINE#         153
  C:00ADH         LINE#         154
  C:00B0H         LINE#         155
  C:00B0H         LINE#         157
  C:00B5H         LINE#         158
  C:00B5H         LINE#         159
  C:00B7H         LINE#         160
  C:00BAH         LINE#         161
  C:00BAH         LINE#         163
  C:00BFH         LINE#         165
  C:00C3H         LINE#         167
  C:00C5H         LINE#         168
  C:00C7H         LINE#         169
  C:00C9H         LINE#         170
  C:00CBH         LINE#         171
  -------         ENDPROC       MAIN
  -------         ENDMOD        MAIN

Program Size: data=17.0 xdata=0 code=470
LINK/LOCATE RUN COMPLETE.  0 WARNING(S),  0 ERROR(S)
