Linker command line:

-z -h+MAS.SYM -mMAS.MAP -pvectors=00h,text,stack=0200h \
  -prbit=00h/00h,rdata=020h/text,rbss/. \
  -pdata=rbss/rdata,const,strings,bss/. -pfarbss=010000h,fardata/strings \
  -ga/10000h -pnvram=bss -pheap=nvram -ACODE=00h-0FFFFh,010000h-01FFFFhx255 \
  -pfarnvram=fardata -oC:\TMP\L.OBJ C:\XA\LIB\RTxa--l.OBJ PIIC1.OBJ \
  PIIC2.OBJ SYSTEM.OBJ SERIAL1.OBJ SERIAL0.OBJ INIIC.OBJ MAS.OBJ \
  C:\XA\LIB\xa--lC.LIB 

Object code version is 3.5

Machine type is XA

		Name         Link     Load   Length Selector Space Scale
C:\XA\LIB\RTxa--l.OBJ
		text           AC       AC       EA       0     0
		vectors         0        0        4       0     0
PIIC1.OBJ       rbit            0        0        2       0     1    8
		rbss           20       20        2       0     1
		ltext        3036     3036      604       0     0
PIIC2.OBJ       rbit            2        1        2       0     1    8
		rbss           22       22        6       0     1
		ltext        1FBA     1FBA      97C       0     0
SYSTEM.OBJ      ltext        38D4     38D4       18       0     0
SERIAL1.OBJ     bss           178      178        2       0     1
		rbit            4        1        2       0     1    8
		rbss           28       28       7A       0     1
		ltext        2936     2936      700       0     0
SERIAL0.OBJ     rbss           A2       A2       22       0     1
		ltext        363A     363A      15C       0     0
INIIC.OBJ       rbit            6        1        2       0     1    8
		rbss           C4       C4        2       0     1
		ltext         34A      34A     1076       0     0
MAS.OBJ         bss           17A      17A        E       0     1
		rbit            8        1        A       0     1    8
		rbss           C6       C6       2A       0     1
		text          196      196        C       0     0
		vectors         0        0       AC       0     0
		strings        F0      2C2       88       0     0
		code         3796     3796      13E       0     0
		ltext        13C0     13C0      BFA       0     0

C:\XA\LIB\xa--lC.LIB
ldiv.obj        text          1A2      1A2       FC       0     0
lmul.obj        text          29E      29E       1A       0     0
powerup.obj     text          2B8      2B8        4       0     0
indir1.obj      text          2BC      2BC        6       0     0

TOTAL		Name         Link     Load   Length
	CLASS	CODE    
		text           AC       AC      216
		vectors         0        0       AC
		ltext        3036     3036      604
		ltext        1FBA     1FBA      97C
		ltext        38D4     38D4       18
		ltext        2936     2936      700
		ltext        363A     363A      15C
		ltext         34A      34A     1076
		code         3796     3796      13E
		ltext        13C0     13C0      BFA

	CLASS	DATA    
		bss           178      178       10
		rbss           20       20       D0
		strings        F0      2C2       88

	CLASS	BITSEG  
		rbit            0        0       12

	CLASS	FARDATA 



SEGMENTS	Name		Load	Length	 Top	Selector    Space Class

		vectors         000000	0002C2	0002C2	       0       0  CODE
		rbit            000000	000003	000003	       0       1  BITSEG
		rbss            000020	0000D0	0000F0	       0       1  DATA
		bss             000178	000010	000188	       0       1  DATA
		data            0002C2	00362A	0038EC	       0       0  DATA


UNUSED ADDRESS RANGES

	CODE             038EC-FFFFFF

                                  Symbol Table

_Acknowledge      rbit     00008  _AnswerBuf        rbss     00083
_AnswerCheck      ltext    0297C  _AnswerError      rbit     00004
_ByteTx1          ltext    03036  _ByteTx2          ltext    0034A
_ByteTxb          ltext    01FBA  _CharHandler      ltext    01B9C
_CmdIndex         rbss     0006A  _CmdToSend        rbss     0006F
_CommandExecute   ltext    01B08  _IIC1_Cmd         ltext    03530
_IIC1_Read        ltext    0312E  _IIC1_WrStr       ltext    03448
_IIC1_Write       ltext    032A6  _IIC1_Write2      ltext    03374
_IIC2_RdInt       ltext    02904  _IIC2_RdLong      ltext    028AA
_IIC2_RdStr       ltext    025A6  _IIC2_Read        ltext    020B2
_IIC2_WrLongInt   ltext    026A6  _IIC2_WrStr       ltext    023CC
_IIC2_Write       ltext    0222A  _IIC2_Write2      ltext    022F8
_Init_Disp_IIC    ltext    012D2  _Init_Keyb_IIC    ltext    013B6
_NotFound         ltext    01B04  _Number           rbss     000D6
_Number1          rbss     000DA  _PutData0         ltext    036A8
_PutData0_16      ltext    036EA  _PutStr0          ltext    03770
_Rd_iic           ltext    00468  _Read_Disp_IIC    ltext    00E46
_Read_Keyb_IIC    ltext    00952  _RxBuf0           rbss     000A2
_RxBuf1           rbss     00028  _Serial0_init     ltext    0363A
_Serial0_int      ltext    03646  _Serial1_init     ltext    02936
_Serial1_int      ltext    0294C  _SndAsc           ltext    02E10
_SndAsc_n         ltext    02F9C  _SndChar          ltext    02AA4
_SndInt           ltext    02B56  _SndLong          ltext    02C20
_SndRequest       ltext    02E96  _SndRequest_n     ltext    02EEA
_SndSpecial       ltext    02F48  _SndVoid          ltext    02DBC
_Stop_Disp_IIC    ltext    011F6  _Stop_Keyb_IIC    ltext    012DA
_Timer_flag       rbit     00009  _Timer_int        ltext    01BAA
_Wr_iic           ltext    006D8  _Wr_iic2          ltext    00812
_Write_Disp_IIC   ltext    00D08  _Write_Keyb_IIC   ltext    010B8
_Write_X_Disp_IIC ltext    00BC4  __Bcode           code     0034A
__Bconst          const    002C2  __Bdata           data     002C2
__Bfardata        fardata  0034A  __Bfarnvram       farnvram 0034A
__Bltext          ltext    0034A  __Brdata          rdata    002C2
__Bstrings        strings  002C2  __Hbss            bss      00188
__Hcode           code     10000  __Hconst          const    000F0
__Hdata           data     000F0  __Hfarbss         farbss   10000
__Hfardata        fardata  10000  __Hfarnvram       farnvram 10000
__Hheap           heap     00188  __Hltext          ltext    10000
__Hnvram          nvram    00188  __Hrbit           rbit     00012
__Hrbss           rbss     000F0  __Hrdata          rdata    00020
__Hstack          stack    00200  __Hstrings        strings  00178
__Htext           text     002C2  __Hvectors        vectors  000AC
__Lbss            bss      00178  __Lcode           code     10000
__Lconst          const    000F0  __Ldata           data     000F0
__Lfarbss         farbss   10000  __Lfardata        fardata  10000
__Lfarnvram       farnvram 10000  __Lheap           heap     00188
__Lltext          ltext    10000  __Lnvram          nvram    00188
__Lrbit           rbit     00000  __Lrbss           rbss     00020
__Lrdata          rdata    00020  __Lstack          stack    00200
__Lstrings        strings  000F0  __Ltext           text     000AC
__Lvectors        vectors  00000  __S0              (abs)    038EC
_backchar         ltext    013E0  _bufbusy          rbit     0000A
_c                rbss     000E3  _cc               rbss     000E4
_checkopt         ltext    01BC0  _cksum            rbss     0006B
_daclev1          ltext    0163C  _daclev2          ltext    016DC
_dacoffset1       ltext    0168C  _dacoffset2       ltext    0172C
_dummy            ltext    01AF8  _exit             text     0016E
_fejl             rbss     000C6  _genbusy          rbit     0000B
_genmode          ltext    01904  _genrdg           ltext    01A30
_genrdm           ltext    01A50  _genrdtxt         ltext    019DE
_gensetd5         ltext    01856  _gensetd6         ltext    01840
_gensetg          ltext    017BC  _gensetm          ltext    017FE
_genstoreg        ltext    019FC  _genstorem        ltext    01A16
_genwrtxt         ltext    019CA  _get_char0        ltext    03688
_get_char1        ltext    02A84  _get_syncstat     ltext    01414
_gfase1           ltext    0143C  _gfase2           ltext    01450
_global1          ltext    014DC  _global2          ltext    014F0
_grense           rbss     000C8  _header1          rbss     000E5
_hphcalcg         ltext    0186C  _hphcalcm         ltext    018A8
_hphsetg          ltext    01790  _hphsetm          ltext    017A6
_hphupg           ltext    018E4  _hphupm           ltext    018F4
_ind1             (abs)    02001  _ind2             (abs)    04001
_instr_index      bss      0017C  _instring         bss      0017D
_instrptr         bss      0017A  _kommandotabel    code     037A2
_lev1det          rbss     000CA  _lev2det          rbss     000CC
_load1g7          ltext    01464  _load1ms          ltext    014B4
_load2g7          ltext    01478  _load2ms          ltext    014C8
_main             ltext    01BC4  _mfase1           ltext    0148C
_mfase2           ltext    014A0  _modetab          code     03796
_myaddress        rbss     000E6  _oldtemp          rbss     000CE
_opstart          ltext    01BC2  _options          rbss     000D0
_optstat          ltext    01ABE  _pause1           ltext    029B2
_pgadata          (abs)    20000  _phases1          ltext    0154C
_phases1m         ltext    015C4  _phases2          ltext    01588
_phases2m         ltext    01600  _put_char0        ltext    03676
_put_char1        ltext    02A62  _quit             rbit     0000C
_rdtext1          ltext    01958  _rdtext2          ltext    019A0
_rep_no           rbss     0006C  _req              rbit     0000D
_req_ready        rbit     0000E  _reread           rbss     000E7
_reset1           ltext    0177C  _reset2           ltext    01786
_rstate           rbss     0006D  _save             rbit     0000F
_sch1             ltext    01520  _sch2             ltext    01536
_scload1          ltext    01504  _scload2          ltext    01512
_shotdown         rbit     00010  _slicer           rbss     000E8
_speed            rbss     000E9  _status1          ltext    01A72
_status2          ltext    01A98  _syncstatus       rbss     000EA
_syssetup         ltext    038D4  _teller           rbss     000D2
_temp             rbss     000D4  _tempcnt          rbss     000EB
_tempwarn         rbss     000EC  _testbbu          rbss     000DE
_tmp              rbss     00022  _ud1              (abs)    02001
_ud1buf           rbss     000ED  _ud2              (abs)    04001
_ud3              (abs)    06001  _ud4              (abs)    08001
_ud4buf           rbss     000EE  _ud5              (abs)    0A001
_ud5buf           rbss     000EF  _v24stat          rbss     0006E
_waitanswer       ltext    029BE  _waitms           ltext    013C0
_waitus           ltext    013D8  _warntemp         ltext    01B06
_wrtext1          ltext    0193A  _wrtext2          ltext    01982
aldiv             text     00240  almod             text     0026E
almul             text     0029E  indir_lr1         text     002BC
lldiv             text     001F2  llmod             text     00204
llmul             text     0029E  powerup           text     002B8
start             text     000FC  
