XA assembler v2.0 r2                    SN00085795-037 (c) 1998 TASKING, Inc.
                                                                                                                            Page   1
U:\Pt5201\Design\DDD\SW\BootProgram\Source\1_5\iic.src
ADDR   CODE            LINE SOURCELINE
                          2 ; options: -IC:\cxa\include -Ml -Cxag3 -Sd -A1 -O1 -DWritableSector=0
                          3 ;          -DBootProgram=1 -g
                          5 $NOZPAGE
                          6         NAME    IIC
000000                   15 IIC_PR  SEGMENT HCODE
000000                   16         RSEG    IIC_PR
                         17         ALIGN   1
000000                   19 IIC_CLR_BI@DS   SEGMENT BIT JOIN
000000                   20         RSEG    IIC_CLR_BI@DS
000000 RESERVED          21 _3:     DBIT    1
000000
                         22         PUBLIC  _ByteTx2
000000                   23         RSEG    IIC_PR
000000                   23         RSEG    IIC_PR
000000                   24 _ByteTx2:
000000 911808            34         MOV.B   R0H,#08H
000004                   36 _4:
000004 08038F            38         CLR     0431H.7
000007 D101              40         ASL.B   R0L,#01H
000009 082207            42         MOV     C,0400H.7
00000C 08338E            43         MOV     0431H.6,C
00000F B6r0rr            44         MOV.B   _pau,#00H
000012 B6r0rr            45         MOV.B   _pau,#00H
000015 B6r0rr            46         MOV.B   _pau,#00H
000018 B6r0rr            47         MOV.B   _pau,#00H
00001B B6r0rr            48         MOV.B   _pau,#00H
00001E B6r0rr            49         MOV.B   _pau,#00H
000021 B6r0rr            50         MOV.B   _pau,#00H
000024 B6r0rr            51         MOV.B   _pau,#00H
000027 B6r0rr            52         MOV.B   _pau,#00H
00002A B6r0rr            53         MOV.B   _pau,#00H
00002D B6r0rr            54         MOV.B   _pau,#00H
000030 B6r0rr            55         MOV.B   _pau,#00H
000033 08138F            57         SETB    0431H.7
000036 B6r0rr            58         MOV.B   _pau,#00H
000039 B6r0rr            59         MOV.B   _pau,#00H
00003C B6r0rr            60         MOV.B   _pau,#00H
00003F B6r0rr            61         MOV.B   _pau,#00H
000042 B6r0rr            62         MOV.B   _pau,#00H
000045 B6r0rr            63         MOV.B   _pau,#00H
000048 B6r0rr            64         MOV.B   _pau,#00H
00004B B6r0rr            65         MOV.B   _pau,#00H
00004E B6r0rr            66         MOV.B   _pau,#00H
000051 B6r0rr            67         MOV.B   _pau,#00H
000054 B6r0rr            68         MOV.B   _pau,#00H
000057 B6r0rr            69         MOV.B   _pau,#00H
00005A B6r0rr            70         MOV.B   _pau,#00H
00005D B6r0rr            71         MOV.B   _pau,#00H
000060 B6r0rr            72         MOV.B   _pau,#00H
000063 B6r0rr            73         MOV.B   _pau,#00H
000066 B6r0rr            74         MOV.B   _pau,#00H
000069 B6r0rr            75         MOV.B   _pau,#00H
00006C B6r0rr            76         MOV.B   _pau,#00H
00006F B6r0rr            77         MOV.B   _pau,#00H
000072 B6r0rr            78         MOV.B   _pau,#00H
000076                   80 _5:
000076 08238F            81         MOV     C,0431H.7
000079 F0FE              82         BCC     _5
00007B 08038F            84         CLR     0431H.7
00007E B6r0rr            85         MOV.B   _pau,#00H
000081 B6r0rr            86         MOV.B   _pau,#00H
000084 B6r0rr            87         MOV.B   _pau,#00H
XA assembler v2.0 r2                    SN00085795-037 (c) 1998 TASKING, Inc.
                                                                                                                            Page   2

ADDR   CODE            LINE SOURCELINE
000087 B6r0rr            88         MOV.B   _pau,#00H
00008A B6r0rr            89         MOV.B   _pau,#00H
00008D B6r0rr            90         MOV.B   _pau,#00H
000090 B6r0rr            91         MOV.B   _pau,#00H
000093 B6r0rr            92         MOV.B   _pau,#00H
000096 B6r0rr            93         MOV.B   _pau,#00H
000099 A11F              95         ADDS.B  R0H,#0FH
00009B F2B4              96         BNE     _4
00009D 08138E            98         SETB    0431H.6
0000A0 08138E            99         SETB    0431H.6
0000A3 08138E           100         SETB    0431H.6
0000A6 B6r0rr           101         MOV.B   _pau,#00H
0000A9 B6r0rr           102         MOV.B   _pau,#00H
0000AC B6r0rr           103         MOV.B   _pau,#00H
0000AF B6r0rr           104         MOV.B   _pau,#00H
0000B2 B6r0rr           105         MOV.B   _pau,#00H
0000B5 B6r0rr           106         MOV.B   _pau,#00H
0000B8 B6r0rr           107         MOV.B   _pau,#00H
0000BB B6r0rr           108         MOV.B   _pau,#00H
0000BE B6r0rr           109         MOV.B   _pau,#00H
0000C1 B6r0rr           110         MOV.B   _pau,#00H
0000C4 B6r0rr           111         MOV.B   _pau,#00H
0000C7 B6r0rr           112         MOV.B   _pau,#00H
0000CA 08138F           114         SETB    0431H.7
0000CD B6r0rr           115         MOV.B   _pau,#00H
0000D0 B6r0rr           116         MOV.B   _pau,#00H
0000D3 B6r0rr           117         MOV.B   _pau,#00H
0000D6 B6r0rr           118         MOV.B   _pau,#00H
0000D9 B6r0rr           119         MOV.B   _pau,#00H
0000DC B6r0rr           120         MOV.B   _pau,#00H
0000DF B6r0rr           121         MOV.B   _pau,#00H
0000E2 B6r0rr           122         MOV.B   _pau,#00H
0000E5 B6r0rr           123         MOV.B   _pau,#00H
0000E8 B6r0rr           124         MOV.B   _pau,#00H
0000EB B6r0rr           125         MOV.B   _pau,#00H
0000EE B6r0rr           126         MOV.B   _pau,#00H
0000F1 B6r0rr           127         MOV.B   _pau,#00H
0000F4 B6r0rr           128         MOV.B   _pau,#00H
0000F7 B6r0rr           129         MOV.B   _pau,#00H
0000FA B6r0rr           130         MOV.B   _pau,#00H
0000FD B6r0rr           131         MOV.B   _pau,#00H
000100 B6r0rr           132         MOV.B   _pau,#00H
000104                  134 _6:
000104 08238F           135         MOV     C,0431H.7
000107 F0FE             136         BCC     _6
000109 08238E           138         MOV     C,0431H.6
00010C F103             139         BCS     _7
00010E 081000           140         SETB    R0.0
000111 FE03             141         BR      _8
000111 FE0300           141         BR      _8
000114                  142 _7:
000114 080000           143         CLR     R0.0
000114 08000000         143         CLR     R0.0
000118                  144 _8:
000118 082000           145         MOV     C,R0.0
00011B 083rrr           146         MOV     _3,C
00011E 08038F           148         CLR     0431H.7
000121 082rrr           150         MOV     C,_3
000124 083000           151         MOV     R0.0,C
000127 D680             153         RET
000129 00               155         ALIGN   1
                        157         PUBLIC  _RdFrontIIC
XA assembler v2.0 r2                    SN00085795-037 (c) 1998 TASKING, Inc.
                                                                                                                            Page   3

ADDR   CODE            LINE SOURCELINE
00012A                  158 _RdFrontIIC:
00012A 0F10             162         PUSH.W  R4
00012C 8190             165         MOV.B   R4H,R0L
00012E 964842rr         174         MOV.B   ES,#SEG( _IICErrorCode )
000132 9908rrrr         175         MOV.W   R0,#SOF( _IICErrorCode )
000136 B203             176         MOV.B   [R0],#03H
000138 08038E           178         CLR     0431H.6
00013B B6r0rr           179         MOV.B   _pau,#00H
00013E B6r0rr           180         MOV.B   _pau,#00H
000141 B6r0rr           181         MOV.B   _pau,#00H
000144 B6r0rr           182         MOV.B   _pau,#00H
000147 B6r0rr           183         MOV.B   _pau,#00H
00014A B6r0rr           184         MOV.B   _pau,#00H
00014D B6r0rr           185         MOV.B   _pau,#00H
000150 B6r0rr           186         MOV.B   _pau,#00H
000153 B6r0rr           187         MOV.B   _pau,#00H
000156 B6r0rr           188         MOV.B   _pau,#00H
000159 B6r0rr           189         MOV.B   _pau,#00H
00015C B6r0rr           190         MOV.B   _pau,#00H
00015F B6r0rr           191         MOV.B   _pau,#00H
000162 B6r0rr           192         MOV.B   _pau,#00H
000165 B6r0rr           193         MOV.B   _pau,#00H
000168 B6r0rr           194         MOV.B   _pau,#00H
00016B B6r0rr           195         MOV.B   _pau,#00H
00016E B6r0rr           196         MOV.B   _pau,#00H
000171 B6r0rr           197         MOV.B   _pau,#00H
000174 B6r0rr           198         MOV.B   _pau,#00H
000177 B6r0rr           199         MOV.B   _pau,#00H
00017A B6r0rr           200         MOV.B   _pau,#00H
00017D B6r0rr           201         MOV.B   _pau,#00H
000180 B6r0rr           202         MOV.B   _pau,#00H
000183 08038F           203         CLR     0431H.7
000186 918800           205         MOV.B   R4L,#00H
00018A                  207 _9:
00018A 8109             209         MOV.B   R0L,R4H
00018C A101             210         ADDS.B  R0L,#01H
00018E C5FF38           211         CALL    _ByteTx2
000191 082000           212         MOV     C,R0.0
000194 083rrr           213         MOV     _Acknowledge,C
000197 082rrr           214         MOV     C,_Acknowledge
                        215         BCC     _13
00019A F102            +215 ;       BCS     _LG_8
00019C D500A7          +215 ;       JMP.L   _13
00019C D500A700        +215 ;       JMP.L   _13
0001A0                 +215 _LG_8:
0001A0 964842rr         217         MOV.B   ES,#SEG( _IICErrorCode )
0001A4 9908rrrr         218         MOV.W   R0,#SOF( _IICErrorCode )
0001A8 B200             219         MOV.B   [R0],#00H
0001AA B6r0rr           221         MOV.B   _pau,#00H
0001AD B6r0rr           222         MOV.B   _pau,#00H
0001B0 B6r0rr           223         MOV.B   _pau,#00H
0001B3 B6r0rr           224         MOV.B   _pau,#00H
0001B6 B6r0rr           225         MOV.B   _pau,#00H
0001B9 B6r0rr           226         MOV.B   _pau,#00H
0001BC B6r0rr           227         MOV.B   _pau,#00H
0001BF B6r0rr           228         MOV.B   _pau,#00H
0001C2 B6r0rr           229         MOV.B   _pau,#00H
0001C5 B6r0rr           230         MOV.B   _pau,#00H
0001C8 B6r0rr           231         MOV.B   _pau,#00H
0001CB B6r0rr           232         MOV.B   _pau,#00H
0001CE B6r0rr           233         MOV.B   _pau,#00H
0001D1 B6r0rr           234         MOV.B   _pau,#00H
XA assembler v2.0 r2                    SN00085795-037 (c) 1998 TASKING, Inc.
                                                                                                                            Page   4

ADDR   CODE            LINE SOURCELINE
0001D4 B6r0rr           235         MOV.B   _pau,#00H
0001D7 B6r0rr           236         MOV.B   _pau,#00H
0001DA B6r0rr           237         MOV.B   _pau,#00H
0001DD B6r0rr           238         MOV.B   _pau,#00H
0001E0 B6r0rr           239         MOV.B   _pau,#00H
0001E3 B6r0rr           240         MOV.B   _pau,#00H
0001E6 B6r0rr           241         MOV.B   _pau,#00H
0001E9 918800           243         MOV.B   R4L,#00H
0001EC 910808           247         MOV.B   R0L,#08H
0001F0                  249 _10:
0001F0 08138F           251         SETB    0431H.7
0001F3 B6r0rr           252         MOV.B   _pau,#00H
0001F6 B6r0rr           253         MOV.B   _pau,#00H
0001F9 B6r0rr           254         MOV.B   _pau,#00H
0001FC B6r0rr           255         MOV.B   _pau,#00H
0001FF B6r0rr           256         MOV.B   _pau,#00H
000202 B6r0rr           257         MOV.B   _pau,#00H
000205 B6r0rr           258         MOV.B   _pau,#00H
000208 B6r0rr           259         MOV.B   _pau,#00H
00020B B6r0rr           260         MOV.B   _pau,#00H
00020E B6r0rr           261         MOV.B   _pau,#00H
000211 B6r0rr           262         MOV.B   _pau,#00H
000214 B6r0rr           263         MOV.B   _pau,#00H
000217 B6r0rr           264         MOV.B   _pau,#00H
00021A B6r0rr           265         MOV.B   _pau,#00H
00021D B6r0rr           266         MOV.B   _pau,#00H
000220 B6r0rr           267         MOV.B   _pau,#00H
000223 B6r0rr           268         MOV.B   _pau,#00H
000226 B6r0rr           269         MOV.B   _pau,#00H
00022A                  271 _11:
00022A 08238F           272         MOV     C,0431H.7
00022D F0FE             273         BCC     _11
00022F 97A38E03         275         JNB     0431H.6,_16
000233 B111             276         MOVS.B  R0H,#01H
000235 FE02             277         BR      _17
000235 FE0200           277         BR      _17
000238                  278 _16:
000238 B110             279         MOVS.B  R0H,#00H
000238 B110             279         MOVS.B  R0H,#00H
00023A                  280 _17:
00023A 0118             281         ADD.B   R0H,R4L
00023C 0181             282         ADD.B   R4L,R0H
00023E 08038F           286         CLR     0431H.7
000241 08038F           287         CLR     0431H.7
000244 B6r0rr           288         MOV.B   _pau,#00H
000247 B6r0rr           289         MOV.B   _pau,#00H
00024A B6r0rr           290         MOV.B   _pau,#00H
00024D B6r0rr           291         MOV.B   _pau,#00H
000250 B6r0rr           292         MOV.B   _pau,#00H
000253 B6r0rr           293         MOV.B   _pau,#00H
000256 B6r0rr           294         MOV.B   _pau,#00H
000259 B6r0rr           295         MOV.B   _pau,#00H
00025C B6r0rr           296         MOV.B   _pau,#00H
00025F B6r0rr           297         MOV.B   _pau,#00H
000262 B6r0rr           298         MOV.B   _pau,#00H
000265 B6r0rr           299         MOV.B   _pau,#00H
000268 B6r0rr           300         MOV.B   _pau,#00H
00026B B6r0rr           301         MOV.B   _pau,#00H
00026E B6r0rr           302         MOV.B   _pau,#00H
000271 B6r0rr           303         MOV.B   _pau,#00H
000274 B6r0rr           304         MOV.B   _pau,#00H
000277 B6r0rr           305         MOV.B   _pau,#00H
XA assembler v2.0 r2                    SN00085795-037 (c) 1998 TASKING, Inc.
                                                                                                                            Page   5

ADDR   CODE            LINE SOURCELINE
00027A B6r0rr           306         MOV.B   _pau,#00H
00027D B6r0rr           307         MOV.B   _pau,#00H
000280 B6r0rr           308         MOV.B   _pau,#00H
000283 B6r0rr           309         MOV.B   _pau,#00H
000286 B6r0rr           310         MOV.B   _pau,#00H
000289 B6r0rr           311         MOV.B   _pau,#00H
00028C A10F             313         ADDS.B  R0L,#0FH
00028E F2B0             314         BNE     _10
000290 08138E           316         SETB    0431H.6
000293 08138F           318         SETB    0431H.7
000296 B6r0rr           319         MOV.B   _pau,#00H
000299 B6r0rr           320         MOV.B   _pau,#00H
00029C B6r0rr           321         MOV.B   _pau,#00H
00029F B6r0rr           322         MOV.B   _pau,#00H
0002A2 B6r0rr           323         MOV.B   _pau,#00H
0002A5 B6r0rr           324         MOV.B   _pau,#00H
0002A8 B6r0rr           325         MOV.B   _pau,#00H
0002AB B6r0rr           326         MOV.B   _pau,#00H
0002AE B6r0rr           327         MOV.B   _pau,#00H
0002B1 B6r0rr           328         MOV.B   _pau,#00H
0002B4 B6r0rr           329         MOV.B   _pau,#00H
0002B7 B6r0rr           330         MOV.B   _pau,#00H
0002BA B6r0rr           331         MOV.B   _pau,#00H
0002BD B6r0rr           332         MOV.B   _pau,#00H
0002C0 B6r0rr           333         MOV.B   _pau,#00H
0002C3 B6r0rr           334         MOV.B   _pau,#00H
0002C6 B6r0rr           335         MOV.B   _pau,#00H
0002C9 B6r0rr           336         MOV.B   _pau,#00H
0002CC B6r0rr           337         MOV.B   _pau,#00H
0002CF B6r0rr           338         MOV.B   _pau,#00H
0002D2 B6r0rr           339         MOV.B   _pau,#00H
0002D5 B6r0rr           340         MOV.B   _pau,#00H
0002D8 B6r0rr           341         MOV.B   _pau,#00H
0002DB B6r0rr           342         MOV.B   _pau,#00H
0002DE                  344 _12:
0002DE 08238F           345         MOV     C,0431H.7
0002E1 F0FE             346         BCC     _12
0002E3 08038F           348         CLR     0431H.7
0002E6 08038F           349         CLR     0431H.7
0002E9 FE06             351         BR      _14
0002EC                  353 _13:
0002EC A181             357         ADDS.B  R4L,#01H
0002EE 918403           360         CMP.B   R4L,#03H
                        361         BCS     _9
0002F1 F002            +361 ;       BCC     _LG_18
0002F3 D5FF4A          +361 ;       JMP.L   _9
0002F3 D5FF4A          +361 ;       JMP.L   _9
0002F6                 +361 _LG_18:
0002F6                  363 _14:
0002F6 08038E           364         CLR     0431H.6
0002F9 08038F           365         CLR     0431H.7
0002FC B6r0rr           366         MOV.B   _pau,#00H
0002FF B6r0rr           367         MOV.B   _pau,#00H
000302 B6r0rr           368         MOV.B   _pau,#00H
000305 B6r0rr           369         MOV.B   _pau,#00H
000308 B6r0rr           370         MOV.B   _pau,#00H
00030B B6r0rr           371         MOV.B   _pau,#00H
00030E B6r0rr           372         MOV.B   _pau,#00H
000311 B6r0rr           373         MOV.B   _pau,#00H
000314 B6r0rr           374         MOV.B   _pau,#00H
000317 B6r0rr           375         MOV.B   _pau,#00H
00031A B6r0rr           376         MOV.B   _pau,#00H
XA assembler v2.0 r2                    SN00085795-037 (c) 1998 TASKING, Inc.
                                                                                                                            Page   6

ADDR   CODE            LINE SOURCELINE
00031D B6r0rr           377         MOV.B   _pau,#00H
000320 B6r0rr           378         MOV.B   _pau,#00H
000323 B6r0rr           379         MOV.B   _pau,#00H
000326 B6r0rr           380         MOV.B   _pau,#00H
000329 B6r0rr           381         MOV.B   _pau,#00H
00032C B6r0rr           382         MOV.B   _pau,#00H
00032F B6r0rr           383         MOV.B   _pau,#00H
000332 B6r0rr           384         MOV.B   _pau,#00H
000335 B6r0rr           385         MOV.B   _pau,#00H
000338 B6r0rr           386         MOV.B   _pau,#00H
00033B B6r0rr           387         MOV.B   _pau,#00H
00033E B6r0rr           388         MOV.B   _pau,#00H
000341 B6r0rr           389         MOV.B   _pau,#00H
000344 08138F           390         SETB    0431H.7
000344 08138F00         390         SETB    0431H.7
000348                  391 _15:
000348 08238F           392         MOV     C,0431H.7
00034B F0FE             393         BCC     _15
00034D 08138F           394         SETB    0431H.7
000350 B6r0rr           395         MOV.B   _pau,#00H
000353 B6r0rr           396         MOV.B   _pau,#00H
000356 B6r0rr           397         MOV.B   _pau,#00H
000359 B6r0rr           398         MOV.B   _pau,#00H
00035C B6r0rr           399         MOV.B   _pau,#00H
00035F B6r0rr           400         MOV.B   _pau,#00H
000362 B6r0rr           401         MOV.B   _pau,#00H
000365 B6r0rr           402         MOV.B   _pau,#00H
000368 B6r0rr           403         MOV.B   _pau,#00H
00036B B6r0rr           404         MOV.B   _pau,#00H
00036E B6r0rr           405         MOV.B   _pau,#00H
000371 B6r0rr           406         MOV.B   _pau,#00H
000374 B6r0rr           407         MOV.B   _pau,#00H
000377 B6r0rr           408         MOV.B   _pau,#00H
00037A B6r0rr           409         MOV.B   _pau,#00H
00037D B6r0rr           410         MOV.B   _pau,#00H
000380 B6r0rr           411         MOV.B   _pau,#00H
000383 B6r0rr           412         MOV.B   _pau,#00H
000386 B6r0rr           413         MOV.B   _pau,#00H
000389 B6r0rr           414         MOV.B   _pau,#00H
00038C B6r0rr           415         MOV.B   _pau,#00H
00038F B6r0rr           416         MOV.B   _pau,#00H
000392 B6r0rr           417         MOV.B   _pau,#00H
000395 B6r0rr           418         MOV.B   _pau,#00H
000398 08138E           419         SETB    0431H.6
00039B B6r0rr           420         MOV.B   _pau,#00H
00039E B6r0rr           421         MOV.B   _pau,#00H
0003A1 B6r0rr           422         MOV.B   _pau,#00H
0003A4 B6r0rr           423         MOV.B   _pau,#00H
0003A7 B6r0rr           424         MOV.B   _pau,#00H
0003AA B6r0rr           425         MOV.B   _pau,#00H
0003AD B6r0rr           426         MOV.B   _pau,#00H
0003B0 B6r0rr           427         MOV.B   _pau,#00H
0003B3 B6r0rr           428         MOV.B   _pau,#00H
0003B6 B6r0rr           429         MOV.B   _pau,#00H
0003B9 B6r0rr           430         MOV.B   _pau,#00H
0003BC B6r0rr           431         MOV.B   _pau,#00H
0003BF B6r0rr           432         MOV.B   _pau,#00H
0003C2 B6r0rr           433         MOV.B   _pau,#00H
0003C5 B6r0rr           434         MOV.B   _pau,#00H
0003C8 B6r0rr           435         MOV.B   _pau,#00H
0003CB B6r0rr           436         MOV.B   _pau,#00H
0003CE B6r0rr           437         MOV.B   _pau,#00H
XA assembler v2.0 r2                    SN00085795-037 (c) 1998 TASKING, Inc.
                                                                                                                            Page   7

ADDR   CODE            LINE SOURCELINE
0003D1 8108             439         MOV.B   R0L,R4L
0003D3 2F10             443         POP.W   R4
0003D5 D680             445         RET
0003D7 00               449         ALIGN   1
                        451         PUBLIC  _WrFrontIIC
0003D8                  452 _WrFrontIIC:
0003D8 0F30             456         PUSH.W  R4, R5
0003DA 81A1             460         MOV.B   R5L,R0H
0003DC 8190             463         MOV.B   R4H,R0L
0003DE 964842rr         471         MOV.B   ES,#SEG( _IICErrorCode )
0003E2 9908rrrr         472         MOV.W   R0,#SOF( _IICErrorCode )
0003E6 B201             473         MOV.B   [R0],#01H
0003E8 08038E           475         CLR     0431H.6
0003EB B6r0rr           476         MOV.B   _pau,#00H
0003EE B6r0rr           477         MOV.B   _pau,#00H
0003F1 B6r0rr           478         MOV.B   _pau,#00H
0003F4 B6r0rr           479         MOV.B   _pau,#00H
0003F7 B6r0rr           480         MOV.B   _pau,#00H
0003FA B6r0rr           481         MOV.B   _pau,#00H
0003FD B6r0rr           482         MOV.B   _pau,#00H
000400 B6r0rr           483         MOV.B   _pau,#00H
000403 B6r0rr           484         MOV.B   _pau,#00H
000406 B6r0rr           485         MOV.B   _pau,#00H
000409 B6r0rr           486         MOV.B   _pau,#00H
00040C B6r0rr           487         MOV.B   _pau,#00H
00040F B6r0rr           488         MOV.B   _pau,#00H
000412 B6r0rr           489         MOV.B   _pau,#00H
000415 B6r0rr           490         MOV.B   _pau,#00H
000418 B6r0rr           491         MOV.B   _pau,#00H
00041B B6r0rr           492         MOV.B   _pau,#00H
00041E B6r0rr           493         MOV.B   _pau,#00H
000421 B6r0rr           494         MOV.B   _pau,#00H
000424 B6r0rr           495         MOV.B   _pau,#00H
000427 B6r0rr           496         MOV.B   _pau,#00H
00042A B6r0rr           497         MOV.B   _pau,#00H
00042D B6r0rr           498         MOV.B   _pau,#00H
000430 B6r0rr           499         MOV.B   _pau,#00H
000433 08038F           500         CLR     0431H.7
000436 918800           502         MOV.B   R4L,#00H
00043A                  504 _19:
00043A 8109             505         MOV.B   R0L,R4H
00043C C5FDE1           509         CALL    _ByteTx2
00043F 082000           512         MOV     C,R0.0
000442 083rrr           513         MOV     _Acknowledge,C
000445 082rrr           514         MOV     C,_Acknowledge
000448 F013             515         BCC     _20
00044A 964842rr         517         MOV.B   ES,#SEG( _IICErrorCode )
00044E 9908rrrr         518         MOV.W   R0,#SOF( _IICErrorCode )
000452 B202             519         MOV.B   [R0],#02H
000454 810A             521         MOV.B   R0L,R5L
000456 C5FDD4           522         CALL    _ByteTx2
000459 082000           526         MOV     C,R0.0
00045C 083rrr           527         MOV     _Acknowledge,C
00045F 082rrr           528         MOV     C,_Acknowledge
000462 F00A             529         BCC     _22
000464 964842rr         531         MOV.B   ES,#SEG( _IICErrorCode )
000468 9908rrrr         532         MOV.W   R0,#SOF( _IICErrorCode )
00046C B200             533         MOV.B   [R0],#00H
00046E FE04             535         BR      _22
000470                  537 _20:
000470 A181             544         ADDS.B  R4L,#01H
000472 918403           547         CMP.B   R4L,#03H
XA assembler v2.0 r2                    SN00085795-037 (c) 1998 TASKING, Inc.
                                                                                                                            Page   8

ADDR   CODE            LINE SOURCELINE
000475 F1E2             548         BCS     _19
000478                  550 _22:
000478 08038E           551         CLR     0431H.6
00047B 08038F           552         CLR     0431H.7
00047E B6r0rr           553         MOV.B   _pau,#00H
000481 B6r0rr           554         MOV.B   _pau,#00H
000484 B6r0rr           555         MOV.B   _pau,#00H
000487 B6r0rr           556         MOV.B   _pau,#00H
00048A B6r0rr           557         MOV.B   _pau,#00H
00048D B6r0rr           558         MOV.B   _pau,#00H
000490 B6r0rr           559         MOV.B   _pau,#00H
000493 B6r0rr           560         MOV.B   _pau,#00H
000496 B6r0rr           561         MOV.B   _pau,#00H
000499 B6r0rr           562         MOV.B   _pau,#00H
00049C B6r0rr           563         MOV.B   _pau,#00H
00049F B6r0rr           564         MOV.B   _pau,#00H
0004A2 B6r0rr           565         MOV.B   _pau,#00H
0004A5 B6r0rr           566         MOV.B   _pau,#00H
0004A8 B6r0rr           567         MOV.B   _pau,#00H
0004AB B6r0rr           568         MOV.B   _pau,#00H
0004AE B6r0rr           569         MOV.B   _pau,#00H
0004B1 B6r0rr           570         MOV.B   _pau,#00H
0004B4 B6r0rr           571         MOV.B   _pau,#00H
0004B7 B6r0rr           572         MOV.B   _pau,#00H
0004BA B6r0rr           573         MOV.B   _pau,#00H
0004BD B6r0rr           574         MOV.B   _pau,#00H
0004C0 B6r0rr           575         MOV.B   _pau,#00H
0004C3 B6r0rr           576         MOV.B   _pau,#00H
0004C6 08138F           577         SETB    0431H.7
0004C6 08138F00         577         SETB    0431H.7
0004CA                  578 _23:
0004CA 08238F           579         MOV     C,0431H.7
0004CD F0FE             580         BCC     _23
0004CF 08138F           581         SETB    0431H.7
0004D2 B6r0rr           582         MOV.B   _pau,#00H
0004D5 B6r0rr           583         MOV.B   _pau,#00H
0004D8 B6r0rr           584         MOV.B   _pau,#00H
0004DB B6r0rr           585         MOV.B   _pau,#00H
0004DE B6r0rr           586         MOV.B   _pau,#00H
0004E1 B6r0rr           587         MOV.B   _pau,#00H
0004E4 B6r0rr           588         MOV.B   _pau,#00H
0004E7 B6r0rr           589         MOV.B   _pau,#00H
0004EA B6r0rr           590         MOV.B   _pau,#00H
0004ED B6r0rr           591         MOV.B   _pau,#00H
0004F0 B6r0rr           592         MOV.B   _pau,#00H
0004F3 B6r0rr           593         MOV.B   _pau,#00H
0004F6 B6r0rr           594         MOV.B   _pau,#00H
0004F9 B6r0rr           595         MOV.B   _pau,#00H
0004FC B6r0rr           596         MOV.B   _pau,#00H
0004FF B6r0rr           597         MOV.B   _pau,#00H
000502 B6r0rr           598         MOV.B   _pau,#00H
000505 B6r0rr           599         MOV.B   _pau,#00H
000508 B6r0rr           600         MOV.B   _pau,#00H
00050B B6r0rr           601         MOV.B   _pau,#00H
00050E B6r0rr           602         MOV.B   _pau,#00H
000511 B6r0rr           603         MOV.B   _pau,#00H
000514 B6r0rr           604         MOV.B   _pau,#00H
000517 B6r0rr           605         MOV.B   _pau,#00H
00051A 08138E           606         SETB    0431H.6
00051D B6r0rr           607         MOV.B   _pau,#00H
000520 B6r0rr           608         MOV.B   _pau,#00H
000523 B6r0rr           609         MOV.B   _pau,#00H
XA assembler v2.0 r2                    SN00085795-037 (c) 1998 TASKING, Inc.
                                                                                                                            Page   9

ADDR   CODE            LINE SOURCELINE
000526 B6r0rr           610         MOV.B   _pau,#00H
000529 B6r0rr           611         MOV.B   _pau,#00H
00052C B6r0rr           612         MOV.B   _pau,#00H
00052F B6r0rr           613         MOV.B   _pau,#00H
000532 B6r0rr           614         MOV.B   _pau,#00H
000535 B6r0rr           615         MOV.B   _pau,#00H
000538 B6r0rr           616         MOV.B   _pau,#00H
00053B B6r0rr           617         MOV.B   _pau,#00H
00053E B6r0rr           618         MOV.B   _pau,#00H
000541 B6r0rr           619         MOV.B   _pau,#00H
000544 B6r0rr           620         MOV.B   _pau,#00H
000547 B6r0rr           621         MOV.B   _pau,#00H
00054A B6r0rr           622         MOV.B   _pau,#00H
00054D B6r0rr           623         MOV.B   _pau,#00H
000550 B6r0rr           624         MOV.B   _pau,#00H
000553 082rrr           626         MOV     C,_Acknowledge
000556 083000           627         MOV     R0.0,C
000559 2F30             629         POP.W   R4, R5
00055B D680             631         RET
00055D 00               636         ALIGN   1
                        638         PUBLIC  _WrFrontIIC2
00055E                  639 _WrFrontIIC2:
00055E 0F30             643         PUSH.W  R4, R5
000560 81A2             648         MOV.B   R5L,R1L
000562 81B1             651         MOV.B   R5H,R0H
000564 8190             654         MOV.B   R4H,R0L
000566 964842rr         663         MOV.B   ES,#SEG( _IICErrorCode )
00056A 9908rrrr         664         MOV.W   R0,#SOF( _IICErrorCode )
00056E B201             665         MOV.B   [R0],#01H
000570 08038E           667         CLR     0431H.6
000573 B6r0rr           668         MOV.B   _pau,#00H
000576 B6r0rr           669         MOV.B   _pau,#00H
000579 B6r0rr           670         MOV.B   _pau,#00H
00057C B6r0rr           671         MOV.B   _pau,#00H
00057F B6r0rr           672         MOV.B   _pau,#00H
000582 B6r0rr           673         MOV.B   _pau,#00H
000585 B6r0rr           674         MOV.B   _pau,#00H
000588 B6r0rr           675         MOV.B   _pau,#00H
00058B B6r0rr           676         MOV.B   _pau,#00H
00058E B6r0rr           677         MOV.B   _pau,#00H
000591 B6r0rr           678         MOV.B   _pau,#00H
000594 B6r0rr           679         MOV.B   _pau,#00H
000597 B6r0rr           680         MOV.B   _pau,#00H
00059A B6r0rr           681         MOV.B   _pau,#00H
00059D B6r0rr           682         MOV.B   _pau,#00H
0005A0 B6r0rr           683         MOV.B   _pau,#00H
0005A3 B6r0rr           684         MOV.B   _pau,#00H
0005A6 B6r0rr           685         MOV.B   _pau,#00H
0005A9 B6r0rr           686         MOV.B   _pau,#00H
0005AC B6r0rr           687         MOV.B   _pau,#00H
0005AF B6r0rr           688         MOV.B   _pau,#00H
0005B2 B6r0rr           689         MOV.B   _pau,#00H
0005B5 B6r0rr           690         MOV.B   _pau,#00H
0005B8 B6r0rr           691         MOV.B   _pau,#00H
0005BB 08038F           692         CLR     0431H.7
0005BE 918800           694         MOV.B   R4L,#00H
0005C2                  696 _25:
0005C2 8109             697         MOV.B   R0L,R4H
0005C4 C5FD1D           701         CALL    _ByteTx2
0005C7 082000           704         MOV     C,R0.0
0005CA 083rrr           705         MOV     _Acknowledge,C
0005CD 082rrr           706         MOV     C,_Acknowledge
XA assembler v2.0 r2                    SN00085795-037 (c) 1998 TASKING, Inc.
                                                                                                                            Page  10

ADDR   CODE            LINE SOURCELINE
0005D0 F01B             707         BCC     _26
0005D2 964842rr         709         MOV.B   ES,#SEG( _IICErrorCode )
0005D6 9908rrrr         710         MOV.W   R0,#SOF( _IICErrorCode )
0005DA B202             711         MOV.B   [R0],#02H
0005DC 810B             713         MOV.B   R0L,R5H
0005DE C5FD10           714         CALL    _ByteTx2
0005E1 082000           718         MOV     C,R0.0
0005E4 083rrr           719         MOV     _Acknowledge,C
0005E7 082rrr           720         MOV     C,_Acknowledge
0005EA F012             721         BCC     _29
0005EC 810A             723         MOV.B   R0L,R5L
0005EE C5FD08           724         CALL    _ByteTx2
0005F1 082000           728         MOV     C,R0.0
0005F4 083rrr           729         MOV     _Acknowledge,C
0005F7 082rrr           730         MOV     C,_Acknowledge
0005FA F00A             731         BCC     _29
0005FC 964842rr         733         MOV.B   ES,#SEG( _IICErrorCode )
000600 9908rrrr         734         MOV.W   R0,#SOF( _IICErrorCode )
000604 B200             735         MOV.B   [R0],#00H
000606 FE04             737         BR      _29
000608                  739 _26:
000608 A181             747         ADDS.B  R4L,#01H
00060A 918403           750         CMP.B   R4L,#03H
00060D F1DA             751         BCS     _25
000610                  753 _29:
000610 08038E           754         CLR     0431H.6
000613 08038F           755         CLR     0431H.7
000616 B6r0rr           756         MOV.B   _pau,#00H
000619 B6r0rr           757         MOV.B   _pau,#00H
00061C B6r0rr           758         MOV.B   _pau,#00H
00061F B6r0rr           759         MOV.B   _pau,#00H
000622 B6r0rr           760         MOV.B   _pau,#00H
000625 B6r0rr           761         MOV.B   _pau,#00H
000628 B6r0rr           762         MOV.B   _pau,#00H
00062B B6r0rr           763         MOV.B   _pau,#00H
00062E B6r0rr           764         MOV.B   _pau,#00H
000631 B6r0rr           765         MOV.B   _pau,#00H
000634 B6r0rr           766         MOV.B   _pau,#00H
000637 B6r0rr           767         MOV.B   _pau,#00H
00063A B6r0rr           768         MOV.B   _pau,#00H
00063D B6r0rr           769         MOV.B   _pau,#00H
000640 B6r0rr           770         MOV.B   _pau,#00H
000643 B6r0rr           771         MOV.B   _pau,#00H
000646 B6r0rr           772         MOV.B   _pau,#00H
000649 B6r0rr           773         MOV.B   _pau,#00H
00064C B6r0rr           774         MOV.B   _pau,#00H
00064F B6r0rr           775         MOV.B   _pau,#00H
000652 B6r0rr           776         MOV.B   _pau,#00H
000655 B6r0rr           777         MOV.B   _pau,#00H
000658 B6r0rr           778         MOV.B   _pau,#00H
00065B B6r0rr           779         MOV.B   _pau,#00H
00065E 08138F           780         SETB    0431H.7
00065E 08138F00         780         SETB    0431H.7
000662                  781 _30:
000662 08238F           782         MOV     C,0431H.7
000665 F0FE             783         BCC     _30
000667 08138F           784         SETB    0431H.7
00066A B6r0rr           785         MOV.B   _pau,#00H
00066D B6r0rr           786         MOV.B   _pau,#00H
000670 B6r0rr           787         MOV.B   _pau,#00H
000673 B6r0rr           788         MOV.B   _pau,#00H
000676 B6r0rr           789         MOV.B   _pau,#00H
XA assembler v2.0 r2                    SN00085795-037 (c) 1998 TASKING, Inc.
                                                                                                                            Page  11

ADDR   CODE            LINE SOURCELINE
000679 B6r0rr           790         MOV.B   _pau,#00H
00067C B6r0rr           791         MOV.B   _pau,#00H
00067F B6r0rr           792         MOV.B   _pau,#00H
000682 B6r0rr           793         MOV.B   _pau,#00H
000685 B6r0rr           794         MOV.B   _pau,#00H
000688 B6r0rr           795         MOV.B   _pau,#00H
00068B B6r0rr           796         MOV.B   _pau,#00H
00068E B6r0rr           797         MOV.B   _pau,#00H
000691 B6r0rr           798         MOV.B   _pau,#00H
000694 B6r0rr           799         MOV.B   _pau,#00H
000697 B6r0rr           800         MOV.B   _pau,#00H
00069A B6r0rr           801         MOV.B   _pau,#00H
00069D B6r0rr           802         MOV.B   _pau,#00H
0006A0 B6r0rr           803         MOV.B   _pau,#00H
0006A3 B6r0rr           804         MOV.B   _pau,#00H
0006A6 B6r0rr           805         MOV.B   _pau,#00H
0006A9 B6r0rr           806         MOV.B   _pau,#00H
0006AC B6r0rr           807         MOV.B   _pau,#00H
0006AF B6r0rr           808         MOV.B   _pau,#00H
0006B2 08138E           809         SETB    0431H.6
0006B5 B6r0rr           810         MOV.B   _pau,#00H
0006B8 B6r0rr           811         MOV.B   _pau,#00H
0006BB B6r0rr           812         MOV.B   _pau,#00H
0006BE B6r0rr           813         MOV.B   _pau,#00H
0006C1 B6r0rr           814         MOV.B   _pau,#00H
0006C4 B6r0rr           815         MOV.B   _pau,#00H
0006C7 B6r0rr           816         MOV.B   _pau,#00H
0006CA B6r0rr           817         MOV.B   _pau,#00H
0006CD B6r0rr           818         MOV.B   _pau,#00H
0006D0 B6r0rr           819         MOV.B   _pau,#00H
0006D3 B6r0rr           820         MOV.B   _pau,#00H
0006D6 B6r0rr           821         MOV.B   _pau,#00H
0006D9 B6r0rr           822         MOV.B   _pau,#00H
0006DC B6r0rr           823         MOV.B   _pau,#00H
0006DF B6r0rr           824         MOV.B   _pau,#00H
0006E2 B6r0rr           825         MOV.B   _pau,#00H
0006E5 B6r0rr           826         MOV.B   _pau,#00H
0006E8 B6r0rr           827         MOV.B   _pau,#00H
0006EB 082rrr           829         MOV     C,_Acknowledge
0006EE 083000           830         MOV     R0.0,C
0006F1 2F30             832         POP.W   R4, R5
0006F3 D680             834         RET
000000                  844 IIC_CLR_FA      SEGMENT HDATA INSEGMENT CLEAR
000000                  845         RSEG    IIC_CLR_FA
                        846         PUBLIC  _IICErrorCode
000000 RESERVED         847 _IICErrorCode:  DS      1
000000
000001                  850         RSEG    IIC_CLR_BI@DS
                        851         PUBLIC  _Acknowledge
000001 RESERVED         852 _Acknowledge:   DBIT    1
000001
000000                  854 IIC_CLR_NE@DS   SEGMENT DATA JOIN CLEAR
000000                  855         RSEG    IIC_CLR_NE@DS
000000 RESERVED         856 _pau:   DS      1
000000
                        857         EXTRN   DATA(__lc_ub_xvwbuffer)
                        858         EXTRN   DATA(__lc_ue_xvwbuffer)
                        859         CALLS   'RdFrontIIC', 'ByteTx2'
                        860         CALLS   'WrFrontIIC', 'ByteTx2'
                        861         CALLS   'WrFrontIIC2', 'ByteTx2'
