Linker command line:

-z -mSYNC.MAP -Elnk.err -pvectors=00h,text \
  -prbit=0120h/024h,rdata/text,rbss/.,data/rdata,const,strings,bss/.,stack=0200h/ \
  -pnvram=bss -pheap=nvram,FARDATA=010000h,FARBSS -ACODE=0h-0ffffhx16 \
  -ga/10000h -pfarnvram=FARBSS -pbigtabs=10000h/10000h -pcode=03000h \
  -oC:.\L.OBJ C:\XA\LIB\RTxa--L.OBJ SYSTEM.OBJ SYNC.OBJ LOCK.OBJ FIEL.OBJ \
  LINE.OBJ SERI1.OBJ TABKORG.OBJ TABKORM.OBJ TABPOSG.OBJ TABPOSM.OBJ \
  TABDIVI.OBJ TABPYTM.OBJ TABPYTG.OBJ TABLETYP.OBJ TABPHASE.OBJ \
  C:\XA\LIB\xa--LC.LIB 

Object code version is 3.3

Machine type is XA

		Name         Link     Load   Length Selector Space Scale
C:\XA\LIB\RTxa--L.OBJ
		text          110      110       C0       0     0
		vectors         0        0        4       0     0
SYSTEM.OBJ      ltext        1F48     1F48       24       0     0
SYNC.OBJ        bss            F4       F4        4       0     1
		code         3000     3000       66       0     0
		rbit          120       24        E       0     1    8
		rbss           28       28       82       0     1
		text          1D0      1D0       20       0     0
		rdata          26      322        2       0     0
		vectors         0        0      110       0     0
		ltext        1954     1954      558       0     0
LOCK.OBJ        rbit          12E       26        2       0     1    8
		ltext         BCA      BCA      7DC       0     0
FIEL.OBJ        ltext        1EAC     1EAC       9C       0     0
LINE.OBJ        code         3066     3066      276       0     0
		rbss           AA       AA        4       0     1
		ltext         324      324      8A6       0     0
SERI1.OBJ       rbss           AE       AE       46       0     1
		ltext        13A6     13A6      5AE       0     0
TABKORG.OBJ     code         32DC     32DC      800       0     0
TABKORM.OBJ     code         3ADC     3ADC      800       0     0
TABPOSG.OBJ     code         42DC     42DC      6C0       0     0
TABPOSM.OBJ     code         499C     499C      6C0       0     0
TABDIVI.OBJ     bigtabs     10000    10000    10000       1     0
TABPYTM.OBJ     bigtabs     20000    20000    10000       1     0
TABPYTG.OBJ     bigtabs     30000    30000    10000       1     0
TABLETYP.OBJ    code         505C     505C       D8       0     0
TABPHASE.OBJ    bigtabs     40000    40000    10000       1     0

C:\XA\LIB\xa--LC.LIB
ctype_.obj      code         5134     5134      102       0     0
toupper.obj     ltext        1F6C     1F6C       12       0     0
ldiv.obj        text          1F0      1F0       FC       0     0
lmul.obj        text          2EC      2EC       1A       0     0
lcmp.obj        text          306      306       12       0     0
powerup.obj     text          318      318        4       0     0
indir1.obj      text          31C      31C        6       0     0

TOTAL		Name         Link     Load   Length
	CLASS	CODE    
		code         3000     3000     2236
		text          110      110      212
		vectors         0        0      110
		ltext        1F48     1F48       24
		ltext        1954     1954      558
		ltext         BCA      BCA      7DC
		ltext        1EAC     1EAC       9C
		ltext         324      324      8A6
		ltext        13A6     13A6      5AE
		bigtabs     10000    10000    40000
		ltext        1F6C     1F6C       12

	CLASS	DATA    
		bss            F4       F4        4
		rbss           28       28       CC
		rdata          26      322        2

	CLASS	BITSEG  
		rbit          120       24       10

	CLASS	FARDATA 

	CLASS	FARNVRAM

	CLASS	FARBSS  



SEGMENTS	Name		Load	Length	 Top	Selector    Space Class

		vectors         000000	000322	000322	       0       0  CODE
		rbit            000024	000002	000026	       0       1  BITSEG
		rbss            000028	0000CC	0000F4	       0       1  DATA
		bss             0000F4	000004	0000F8	       0       1  DATA
		rdata           000322	001C5C	001F7E	       0       0  DATA
		code            003000	002236	005236	       0       0  CODE
		bigtabs         010000	040000	050000	       1       0  CODE


UNUSED ADDRESS RANGES

	CODE             01F7E-02FFF
	                 50000-5FFFF
	                 60000-6FFFF
	                 70000-7FFFF
	                 80000-8FFFF
	                 90000-9FFFF
	                 A0000-AFFFF
	                 B0000-BFFFF
	                 C0000-CFFFF
	                 D0000-DFFFF
	                 E0000-EFFFF
	                 F0000-FFFFF

                                  Symbol Table

_CharHandler     ltext    01BF0  _CommandExecute  ltext    01B5E
_NotFound        ltext    01954  _Number          rbss     00028
_RxBuf1          rbss     000AE  __Bconst         const    00324
__Bdata          data     00324  __Brbit          rbit     00024
__Brdata         rdata    00322  __Bstack         stack    000F8
__Bstrings       strings  00324  __Hbigtabs       bigtabs  50000
__Hbss           bss      000F8  __Hcode          code     05236
__Hconst         const    000F4  __Hdata          data     000F4
__Hfarnvram      farnvram 10000  __Hheap          heap     000F8
__Hltext         ltext    05236  __Hnvram         nvram    000F8
__Hrbit          rbit     00130  __Hrbss          rbss     000F4
__Hrdata         rdata    00028  __Hstack         stack    00200
__Hstrings       strings  000F4  __Htext          text     00322
__Hvectors       vectors  00110  __Lbigtabs       bigtabs  10000
__Lbss           bss      000F4  __Lcode          code     03000
__Lconst         const    000F4  __Ldata          data     000F4
__Lfarnvram      farnvram 10000  __Lheap          heap     000F8
__Lltext         ltext    05236  __Lnvram         nvram    000F8
__Lrbit          rbit     00120  __Lrbss          rbss     00028
__Lrdata         rdata    00026  __Lstack         stack    00200
__Lstrings       strings  000F4  __Ltext          text     00110
__Lvectors       vectors  00000  __ctype_         code     05134
_a10m_sel        (abs)    0011B  _alian           rbit     00120
_atel            rbss     0007C  _black           rbss     0007D
_blackav         rbss     0007E  _btel            rbss     0007F
_buam            rbss     00080  _buamav          rbss     00081
_buav            (abs)    0010B  _bulock_sel      (abs)    0011E
_bulocken        rbit     00121  _buph            rbss     0002C
_burstfase       ltext    00D02  _burstlock       ltext    010C2
_cc              rbss     00082  _cksum           rbss     000F0
_cntenab         rbit     00122  _combuf          rbss     00083
_cvartel         rbss     0008B  _d1_sel          (abs)    0011C
_diff            rbss     0008C  _divi            bigtabs  10000
_docomm          (abs)    00105  _doflags         (abs)    00020
_doline7         (abs)    00101  _dolock          (abs)    00103
_domode          (abs)    00104  _dosch           (abs)    00102
_dpoint          rbss     0008D  _dual            rdata    00026
_dualport        (abs)    04000  _dummy           ltext    01B5C
_ehporth         (abs)    00201  _ehportl         (abs)    02001
_epapu           rbit     00123  _eph             rbss     0002E
_errpre          rbss     0008E  _exit            text     001B0
_fase            bigtabs  40000  _fasekor         rbss     00030
_fasekorg        code     032DC  _fasekorm        code     03ADC
_fasepos         rbss     00034  _faseposg        code     042DC
_faseposm        code     0499C  _freq_sel        (abs)    0011A
_freqfase        ltext    00FAC  _freqh           (abs)    06080
_freql           (abs)    06000  _freqload        (abs)    08000
_ftel            rbss     0008F  _g_sel           (abs)    00118
_genlocken       (abs)    00110  _genlockmode     ltext    0196A
_genmode         rbss     00090  _genphase_d5     rbss     00038
_genphase_d6     rbss     0003A  _genphase_g      rbss     0003C
_genphase_m      rbss     0003E  _gensetd5        ltext    01B14
_gensetd6        ltext    01AFC  _gensetg         ltext    01ACC
_gensetm         ltext    01AE4  _get_char1       ltext    014AA
_godgren         rbss     00091  _header1         rbss     00092
_hfasec          ltext    01304  _hfasef          ltext    00A9A
_hinput          rbss     00040  _hlock           ltext    01188
_hphautog        ltext    01A38  _hphautom        ltext    01A72
_hphsetg         ltext    01A14  _hphsetm         ltext    01A26
_hphupg          ltext    01AAC  _hphupm          ltext    01ABC
_hphzero_g       rbss     00044  _hphzero_m       rbss     00048
_hpos            rbss     0004C  _href            rbss     0004E
_htel            rbss     00052  _i               rbss     00054
_int10_sel       (abs)    00119  _intern          ltext    012EC
_intern_sel      (abs)    0011D  _j               rbss     00056
_kommandotabel   code     0300C  _kommun          ltext    01D66
_komready        rbit     00124  _level           rbit     00125
_levelcnt        rbss     00093  _linadd          rbss     00094
_line7           ltext    0062C  _line_int        ltext    00324
_lintyp          rbss     00095  _lock            ltext    00BCA
_lockbit         (abs)    00109  _lockdet         rbit     00126
_main            ltext    01D7C  _minus           rbit     00127
_mode            ltext    00794  _modebits        (abs)    00023
_modetab         code     03000  _myaddress       rbss     00096
_nsf             (abs)    00106  _oldpalm         rbss     00097
_oldph           rbss     00058  _oldread         rbss     00098
_outf            rbss     0005A  _outport         (abs)    04FFF
_outs            (abs)    00021  _oven            rbss     00099
_pal             (abs)    0010C  _palav           rbss     0009A
_palm            rbss     0009B  _palpuls         ltext    00750
_papua           rbss     0009C  _papulock        rbss     0009D
_pause1          ltext    014D0  _phdet           rbss     0005C
_phdiff          rbss     0005E  _phgod           rbss     0009E
_pplocken        (abs)    00111  _put_char1       ltext    013DA
_pytg            bigtabs  30000  _pytm            bigtabs  20000
_quit            rbit     00128  _rcksum          rbss     000F1
_req             rbit     00129  _reset           ltext    01B2C
_return_char     ltext    014DC  _return_int      ltext    016E2
_return_long     ltext    01578  _return_long_int ltext    01772
_return_string   ltext    0152E  _rstate          rbss     000F3
_savacc          rbss     0009F  _save            rbit     0012A
_sch             ltext    00870  _schgod          rbss     000A0
_schph           rbss     000A1  _scratc          rbss     00062
_secam           (abs)    0010E  _secamav         rbss     000A2
_serial1_init    ltext    013A6  _serial1_int     ltext    013BE
_serial_end      ltext    013F8  _sersave         rbss     000A3
_slowlock        (abs)    0010D  _speeddel        rbss     000A4
_speedval        rbss     000A5  _spgint          (abs)    0010A
_sphgod          rbss     000A6  _std             rbit     0012B
_subcpot         rbss     00066  _subcref         rbss     00068
_sync            rbss     000A7  _syncav          (abs)    00108
_syssetup        ltext    01F48  _systatus        ltext    01956
_tableam         rbss     0006A  _tableph         rbss     0006E
_tableptr        rbss     000AA  _tablepyt        rbss     00072
_tablestart_g    code     0505C  _tablestart_m    code     050CC
_tau             (abs)    0010F  _toupper         ltext    01F6C
_trig            rbss     000A8  _typeport        (abs)    02000
_v_int           ltext    01EAC  _verr            rbss     000A9
_verreport       ltext    01B4C  _vtimer_int      ltext    01F26
_window          rbit     0012C  _x               rbss     00076
_y               rbss     00078  _z               rbss     0007A
aldiv            text     0028E  almod            text     002BC
almul            text     002EC  indir_lr1        text     0031C
lcmp             text     00306  lldiv            text     00240
llmod            text     00252  llmul            text     002EC
powerup          text     00318  start            text     00160
